
Project_freeRTOS_Learning.elf:     file format elf32-littlearm

Sections:
Idx Name          Size      VMA       LMA       File off  Algn
  0 .isr_vector   000001c8  08000000  08000000  00001000  2**0
                  CONTENTS, ALLOC, LOAD, READONLY, DATA
  1 .text         00004070  080001d0  080001d0  000011d0  2**4
                  CONTENTS, ALLOC, LOAD, READONLY, CODE
  2 .rodata       00000134  08004240  08004240  00005240  2**2
                  CONTENTS, ALLOC, LOAD, READONLY, DATA
  3 .ARM.extab    00000000  08004374  08004374  00006064  2**0
                  CONTENTS, READONLY
  4 .ARM          00000000  08004374  08004374  00006064  2**0
                  CONTENTS, READONLY
  5 .preinit_array 00000000  08004374  08004374  00006064  2**0
                  CONTENTS, ALLOC, LOAD, DATA
  6 .init_array   00000004  08004374  08004374  00005374  2**2
                  CONTENTS, ALLOC, LOAD, READONLY, DATA
  7 .fini_array   00000004  08004378  08004378  00005378  2**2
                  CONTENTS, ALLOC, LOAD, READONLY, DATA
  8 .data         00000064  20000000  0800437c  00006000  2**2
                  CONTENTS, ALLOC, LOAD, DATA
  9 .bss          00004940  20000064  080043e0  00006064  2**2
                  ALLOC
 10 ._user_heap_stack 00000604  200049a4  080043e0  000069a4  2**0
                  ALLOC
 11 .ARM.attributes 00000030  00000000  00000000  00006064  2**0
                  CONTENTS, READONLY
 12 .debug_info   0000aea6  00000000  00000000  00006094  2**0
                  CONTENTS, READONLY, DEBUGGING, OCTETS
 13 .debug_abbrev 00001856  00000000  00000000  00010f3a  2**0
                  CONTENTS, READONLY, DEBUGGING, OCTETS
 14 .debug_aranges 00000990  00000000  00000000  00012790  2**3
                  CONTENTS, READONLY, DEBUGGING, OCTETS
 15 .debug_rnglists 00000742  00000000  00000000  00013120  2**0
                  CONTENTS, READONLY, DEBUGGING, OCTETS
 16 .debug_line   0000829f  00000000  00000000  00013862  2**0
                  CONTENTS, READONLY, DEBUGGING, OCTETS
 17 .debug_str    000039af  00000000  00000000  0001bb01  2**0
                  CONTENTS, READONLY, DEBUGGING, OCTETS
 18 .comment      00000043  00000000  00000000  0001f4b0  2**0
                  CONTENTS, READONLY
 19 .debug_frame  00002d58  00000000  00000000  0001f4f4  2**2
                  CONTENTS, READONLY, DEBUGGING, OCTETS
 20 .debug_line_str 000000c0  00000000  00000000  0002224c  2**0
                  CONTENTS, READONLY, DEBUGGING, OCTETS

Disassembly of section .text:

080001d0 <__do_global_dtors_aux>:
 80001d0:	b510      	push	{r4, lr}
 80001d2:	4c05      	ldr	r4, [pc, #20]	@ (80001e8 <__do_global_dtors_aux+0x18>)
 80001d4:	7823      	ldrb	r3, [r4, #0]
 80001d6:	b933      	cbnz	r3, 80001e6 <__do_global_dtors_aux+0x16>
 80001d8:	4b04      	ldr	r3, [pc, #16]	@ (80001ec <__do_global_dtors_aux+0x1c>)
 80001da:	b113      	cbz	r3, 80001e2 <__do_global_dtors_aux+0x12>
 80001dc:	4804      	ldr	r0, [pc, #16]	@ (80001f0 <__do_global_dtors_aux+0x20>)
 80001de:	f3af 8000 	nop.w
 80001e2:	2301      	movs	r3, #1
 80001e4:	7023      	strb	r3, [r4, #0]
 80001e6:	bd10      	pop	{r4, pc}
 80001e8:	20000064 	.word	0x20000064
 80001ec:	00000000 	.word	0x00000000
 80001f0:	08004228 	.word	0x08004228

080001f4 <frame_dummy>:
 80001f4:	b508      	push	{r3, lr}
 80001f6:	4b03      	ldr	r3, [pc, #12]	@ (8000204 <frame_dummy+0x10>)
 80001f8:	b11b      	cbz	r3, 8000202 <frame_dummy+0xe>
 80001fa:	4903      	ldr	r1, [pc, #12]	@ (8000208 <frame_dummy+0x14>)
 80001fc:	4803      	ldr	r0, [pc, #12]	@ (800020c <frame_dummy+0x18>)
 80001fe:	f3af 8000 	nop.w
 8000202:	bd08      	pop	{r3, pc}
 8000204:	00000000 	.word	0x00000000
 8000208:	20000068 	.word	0x20000068
 800020c:	08004228 	.word	0x08004228

08000210 <SEGGER_RTT_ASM_WriteSkipNoLock>:
        //   R4 <Rem>
        //   R5 pRing->pBuffer
        //   R6 pRing (Points to active struct SEGGER_RTT_BUFFER_DOWN)
        //   R7 WrOff
        //
        PUSH     {R4-R7}
 8000210:	b4f0      	push	{r4, r5, r6, r7}
        ADD      R3,R0,R0, LSL #+1
 8000212:	eb00 0340 	add.w	r3, r0, r0, lsl #1
        LDR.W    R0,=_SEGGER_RTT                 // pRing = &_SEGGER_RTT.aUp[BufferIndex];
 8000216:	f8df 0088 	ldr.w	r0, [pc, #136]	@ 80002a0 <_Case3+0x6>
        ADD      R0,R0,R3, LSL #+3
 800021a:	eb00 00c3 	add.w	r0, r0, r3, lsl #3
        ADD      R6,R0,#+24
 800021e:	f100 0618 	add.w	r6, r0, #24
        LDR      R0,[R6, #+16]                   // RdOff = pRing->RdOff;
 8000222:	6930      	ldr	r0, [r6, #16]
        LDR      R7,[R6, #+12]                   // WrOff = pRing->WrOff;
 8000224:	68f7      	ldr	r7, [r6, #12]
        LDR      R5,[R6, #+4]                    // pRing->pBuffer
 8000226:	6875      	ldr	r5, [r6, #4]
        CMP      R7,R0
 8000228:	4287      	cmp	r7, r0
        BCC.N    _CheckCase4                     // if (RdOff <= WrOff) {                           => Case 1), 2) or 3)
 800022a:	d332      	bcc.n	8000292 <_CheckCase4>
        //
        // Handling for case 1, later on identical to case 4
        //
        LDR      R3,[R6, #+8]                    //  Avail = pRing->SizeOfBuffer - WrOff - 1u;      => Space until wrap-around (assume 1 byte not usable for case that RdOff == 0)
 800022c:	68b3      	ldr	r3, [r6, #8]
        SUBS     R4,R3,R7                        // <Rem> (Used in case we jump into case 2 afterwards)
 800022e:	1bdc      	subs	r4, r3, r7
        SUBS     R3,R4,#+1                       // <Avail>
 8000230:	1e63      	subs	r3, r4, #1
        CMP      R3,R2
 8000232:	4293      	cmp	r3, r2
        BCC.N    _CheckCase2                     // if (Avail >= NumBytes) {  => Case 1)?
 8000234:	d314      	bcc.n	8000260 <_CheckCase2>

08000236 <_Case4>:
_Case4:
        ADDS     R5,R7,R5                        // pBuffer += WrOff
 8000236:	197d      	adds	r5, r7, r5
        ADDS     R0,R2,R7                        // v = WrOff + NumBytes
 8000238:	19d0      	adds	r0, r2, r7
 800023a:	bf00      	nop

0800023c <_LoopCopyStraight>:
        // 2x unrolling for the copy loop that is used most of the time
        // This is a special optimization for small SystemView packets and makes them even faster
        //
        _ALIGN(2)
_LoopCopyStraight:                               // memcpy(pRing->pBuffer + WrOff, pData, NumBytes);
        LDRB     R3,[R1], #+1
 800023c:	f811 3b01 	ldrb.w	r3, [r1], #1
        STRB     R3,[R5], #+1                    // *pDest++ = *pSrc++
 8000240:	f805 3b01 	strb.w	r3, [r5], #1
        SUBS     R2,R2,#+1
 8000244:	3a01      	subs	r2, #1
        BEQ      _CSDone
 8000246:	d005      	beq.n	8000254 <_CSDone>
        LDRB     R3,[R1], #+1
 8000248:	f811 3b01 	ldrb.w	r3, [r1], #1
        STRB     R3,[R5], #+1                    // *pDest++ = *pSrc++
 800024c:	f805 3b01 	strb.w	r3, [r5], #1
        SUBS     R2,R2,#+1
 8000250:	3a01      	subs	r2, #1
        BNE      _LoopCopyStraight
 8000252:	d1f3      	bne.n	800023c <_LoopCopyStraight>

08000254 <_CSDone>:
_CSDone:
#if _CORE_NEEDS_DMB                              // Do not slow down cores that do not need a DMB instruction here
        DMB                                      // Cortex-M7 may delay memory writes and also change the order in which the writes happen. Therefore, make sure that all buffer writes are finished, before updating the <WrOff> in the struct
 8000254:	f3bf 8f5f 	dmb	sy
#endif
        STR      R0,[R6, #+12]                   // pRing->WrOff = WrOff + NumBytes;
 8000258:	60f0      	str	r0, [r6, #12]
        MOVS     R0,#+1
 800025a:	2001      	movs	r0, #1
        POP      {R4-R7}
 800025c:	bcf0      	pop	{r4, r5, r6, r7}
        BX       LR                              // Return 1
 800025e:	4770      	bx	lr

08000260 <_CheckCase2>:
_CheckCase2:
        ADDS     R0,R0,R3                        // Avail += RdOff; => Space incl. wrap-around
 8000260:	18c0      	adds	r0, r0, r3
        CMP      R0,R2
 8000262:	4290      	cmp	r0, r2
        BCC.N    _Case3                          // if (Avail >= NumBytes) {           => Case 2? => If not, we have case 3) (does not fit)
 8000264:	d319      	bcc.n	800029a <_Case3>
        //
        // Handling for case 2
        //
        ADDS     R0,R7,R5                        // v = pRing->pBuffer + WrOff => Do not change pRing->pBuffer here because 2nd chunk needs org. value
 8000266:	1978      	adds	r0, r7, r5
        SUBS     R2,R2,R4                        // NumBytes -= Rem;  (Rem = pRing->SizeOfBuffer - WrOff; => Space until end of buffer)
 8000268:	1b12      	subs	r2, r2, r4

0800026a <_LoopCopyBeforeWrapAround>:
_LoopCopyBeforeWrapAround:                       // memcpy(pRing->pBuffer + WrOff, pData, Rem); => Copy 1st chunk
        LDRB     R3,[R1], #+1
 800026a:	f811 3b01 	ldrb.w	r3, [r1], #1
        STRB     R3,[R0], #+1                    // *pDest++ = *pSrc++
 800026e:	f800 3b01 	strb.w	r3, [r0], #1
        SUBS     R4,R4,#+1
 8000272:	3c01      	subs	r4, #1
        BNE      _LoopCopyBeforeWrapAround
 8000274:	d1f9      	bne.n	800026a <_LoopCopyBeforeWrapAround>
        // Special case: First check that assumed RdOff == 0 calculated that last element before wrap-around could not be used
        // But 2nd check (considering space until wrap-around and until RdOff) revealed that RdOff is not 0, so we can use the last element
        // In this case, we may use a copy straight until buffer end anyway without needing to copy 2 chunks
        // Therefore, check if 2nd memcpy is necessary at all
        //
        ADDS     R4,R2,#+0                       // Save <NumBytes> (needed as counter in loop but must be written to <WrOff> after the loop). Also use this inst to update the flags to skip 2nd loop if possible
 8000276:	1c14      	adds	r4, r2, #0
        BEQ.N    _No2ChunkNeeded                 // if (NumBytes) {
 8000278:	d005      	beq.n	8000286 <_No2ChunkNeeded>

0800027a <_LoopCopyAfterWrapAround>:
_LoopCopyAfterWrapAround:                        // memcpy(pRing->pBuffer, pData + Rem, NumBytes);
        LDRB     R3,[R1], #+1                    // pData already points to the next src byte due to copy loop increment before this loop
 800027a:	f811 3b01 	ldrb.w	r3, [r1], #1
        STRB     R3,[R5], #+1                    // *pDest++ = *pSrc++
 800027e:	f805 3b01 	strb.w	r3, [r5], #1
        SUBS     R2,R2,#+1
 8000282:	3a01      	subs	r2, #1
        BNE      _LoopCopyAfterWrapAround
 8000284:	d1f9      	bne.n	800027a <_LoopCopyAfterWrapAround>

08000286 <_No2ChunkNeeded>:
_No2ChunkNeeded:
#if _CORE_NEEDS_DMB                              // Do not slow down cores that do not need a DMB instruction here
        DMB                                      // Cortex-M7 may delay memory writes and also change the order in which the writes happen. Therefore, make sure that all buffer writes are finished, before updating the <WrOff> in the struct
 8000286:	f3bf 8f5f 	dmb	sy
#endif
        STR      R4,[R6, #+12]                   // pRing->WrOff = NumBytes; => Must be written after copying data because J-Link may read control block asynchronously while writing into buffer
 800028a:	60f4      	str	r4, [r6, #12]
        MOVS     R0,#+1
 800028c:	2001      	movs	r0, #1
        POP      {R4-R7}
 800028e:	bcf0      	pop	{r4, r5, r6, r7}
        BX       LR                              // Return 1
 8000290:	4770      	bx	lr

08000292 <_CheckCase4>:
_CheckCase4:
        SUBS     R0,R0,R7
 8000292:	1bc0      	subs	r0, r0, r7
        SUBS     R0,R0,#+1                       // Avail = RdOff - WrOff - 1u;
 8000294:	3801      	subs	r0, #1
        CMP      R0,R2
 8000296:	4290      	cmp	r0, r2
        BCS.N    _Case4                          // if (Avail >= NumBytes) {      => Case 4) == 1) ? => If not, we have case 5) == 3) (does not fit)
 8000298:	d2cd      	bcs.n	8000236 <_Case4>

0800029a <_Case3>:
_Case3:
        MOVS     R0,#+0
 800029a:	2000      	movs	r0, #0
        POP      {R4-R7}
 800029c:	bcf0      	pop	{r4, r5, r6, r7}
        BX       LR                              // Return 0
 800029e:	4770      	bx	lr
        LDR.W    R0,=_SEGGER_RTT                 // pRing = &_SEGGER_RTT.aUp[BufferIndex];
 80002a0:	20000130 	.word	0x20000130

080002a4 <USART2_IRQHandler>:
    /* Enable NVIC interrupt */
    NVIC_EnableIRQ(USART2_IRQn);
}

void USART2_IRQHandler(void)
{
 80002a4:	b580      	push	{r7, lr}
 80002a6:	b082      	sub	sp, #8
 80002a8:	af00      	add	r7, sp, #0
    if (USART2->SR & SR_RXNE)
 80002aa:	4b0b      	ldr	r3, [pc, #44]	@ (80002d8 <USART2_IRQHandler+0x34>)
 80002ac:	681b      	ldr	r3, [r3, #0]
 80002ae:	f003 0320 	and.w	r3, r3, #32
 80002b2:	2b00      	cmp	r3, #0
 80002b4:	d00c      	beq.n	80002d0 <USART2_IRQHandler+0x2c>
    {
        uint8_t data = USART2->DR;
 80002b6:	4b08      	ldr	r3, [pc, #32]	@ (80002d8 <USART2_IRQHandler+0x34>)
 80002b8:	685b      	ldr	r3, [r3, #4]
 80002ba:	71fb      	strb	r3, [r7, #7]

        if (_rx_cb) {
 80002bc:	4b07      	ldr	r3, [pc, #28]	@ (80002dc <USART2_IRQHandler+0x38>)
 80002be:	681b      	ldr	r3, [r3, #0]
 80002c0:	2b00      	cmp	r3, #0
 80002c2:	d005      	beq.n	80002d0 <USART2_IRQHandler+0x2c>
            _rx_cb(2, data);
 80002c4:	4b05      	ldr	r3, [pc, #20]	@ (80002dc <USART2_IRQHandler+0x38>)
 80002c6:	681b      	ldr	r3, [r3, #0]
 80002c8:	79fa      	ldrb	r2, [r7, #7]
 80002ca:	4611      	mov	r1, r2
 80002cc:	2002      	movs	r0, #2
 80002ce:	4798      	blx	r3
        }
    }
}
 80002d0:	bf00      	nop
 80002d2:	3708      	adds	r7, #8
 80002d4:	46bd      	mov	sp, r7
 80002d6:	bd80      	pop	{r7, pc}
 80002d8:	40004400 	.word	0x40004400
 80002dc:	20000080 	.word	0x20000080

080002e0 <task1_handler>:

#define DWT_CTRL    *((volatile uint32_t*)0xE0001000)
#define CYCCNTENA   (1U<<0)


void task1_handler(void *parameter){
 80002e0:	b580      	push	{r7, lr}
 80002e2:	b082      	sub	sp, #8
 80002e4:	af00      	add	r7, sp, #0
 80002e6:	6078      	str	r0, [r7, #4]

	while(1){
	   printf("%s\n",(char*)parameter);
 80002e8:	6878      	ldr	r0, [r7, #4]
 80002ea:	f003 fbf5 	bl	8003ad8 <puts>
	   taskYIELD();
 80002ee:	4b05      	ldr	r3, [pc, #20]	@ (8000304 <task1_handler+0x24>)
 80002f0:	f04f 5280 	mov.w	r2, #268435456	@ 0x10000000
 80002f4:	601a      	str	r2, [r3, #0]
 80002f6:	f3bf 8f4f 	dsb	sy
 80002fa:	f3bf 8f6f 	isb	sy
	   printf("%s\n",(char*)parameter);
 80002fe:	bf00      	nop
 8000300:	e7f2      	b.n	80002e8 <task1_handler+0x8>
 8000302:	bf00      	nop
 8000304:	e000ed04 	.word	0xe000ed04

08000308 <task2_handler>:
//		vTaskDelay(1000);
	}
	vTaskDelete(task1_handle);
}
void task2_handler(void *parameter){
 8000308:	b580      	push	{r7, lr}
 800030a:	b082      	sub	sp, #8
 800030c:	af00      	add	r7, sp, #0
 800030e:	6078      	str	r0, [r7, #4]
	while(1){
		printf("%s\n",(char*)parameter);
 8000310:	6878      	ldr	r0, [r7, #4]
 8000312:	f003 fbe1 	bl	8003ad8 <puts>
		taskYIELD();
 8000316:	4b05      	ldr	r3, [pc, #20]	@ (800032c <task2_handler+0x24>)
 8000318:	f04f 5280 	mov.w	r2, #268435456	@ 0x10000000
 800031c:	601a      	str	r2, [r3, #0]
 800031e:	f3bf 8f4f 	dsb	sy
 8000322:	f3bf 8f6f 	isb	sy
		printf("%s\n",(char*)parameter);
 8000326:	bf00      	nop
 8000328:	e7f2      	b.n	8000310 <task2_handler+0x8>
 800032a:	bf00      	nop
 800032c:	e000ed04 	.word	0xe000ed04

08000330 <main>:
	}
	vTaskDelete(task2_handle);
}


int main(void){
 8000330:	b580      	push	{r7, lr}
 8000332:	b086      	sub	sp, #24
 8000334:	af02      	add	r7, sp, #8
 	     /*** Enable Count register for STM32 ******/
 	     DWT_CTRL |= CYCCNTENA;
 8000336:	4b21      	ldr	r3, [pc, #132]	@ (80003bc <main+0x8c>)
 8000338:	681b      	ldr	r3, [r3, #0]
 800033a:	4a20      	ldr	r2, [pc, #128]	@ (80003bc <main+0x8c>)
 800033c:	f043 0301 	orr.w	r3, r3, #1
 8000340:	6013      	str	r3, [r2, #0]

//	     SYSVIEW_UART_Config();

	 	 SEGGER_SYSVIEW_Conf();
 8000342:	f000 f8d7 	bl	80004f4 <SEGGER_SYSVIEW_Conf>

	 	 SEGGER_SYSVIEW_Start();
 8000346:	f001 f955 	bl	80015f4 <SEGGER_SYSVIEW_Start>

	 BaseType_t task1_status = xTaskCreate(task1_handler,"Task-1",200,"Hello from Task1",2,&task1_handle);
 800034a:	4b1d      	ldr	r3, [pc, #116]	@ (80003c0 <main+0x90>)
 800034c:	9301      	str	r3, [sp, #4]
 800034e:	2302      	movs	r3, #2
 8000350:	9300      	str	r3, [sp, #0]
 8000352:	4b1c      	ldr	r3, [pc, #112]	@ (80003c4 <main+0x94>)
 8000354:	22c8      	movs	r2, #200	@ 0xc8
 8000356:	491c      	ldr	r1, [pc, #112]	@ (80003c8 <main+0x98>)
 8000358:	481c      	ldr	r0, [pc, #112]	@ (80003cc <main+0x9c>)
 800035a:	f002 f820 	bl	800239e <xTaskCreate>
 800035e:	60f8      	str	r0, [r7, #12]
	 configASSERT(task1_status== pdPASS);
 8000360:	68fb      	ldr	r3, [r7, #12]
 8000362:	2b01      	cmp	r3, #1
 8000364:	d00b      	beq.n	800037e <main+0x4e>

portFORCE_INLINE static void vPortRaiseBASEPRI( void )
{
    uint32_t ulNewBASEPRI;

    __asm volatile
 8000366:	f04f 0350 	mov.w	r3, #80	@ 0x50
 800036a:	f383 8811 	msr	BASEPRI, r3
 800036e:	f3bf 8f6f 	isb	sy
 8000372:	f3bf 8f4f 	dsb	sy
 8000376:	607b      	str	r3, [r7, #4]
        "   msr basepri, %0                                         \n" \
        "   isb                                                     \n" \
        "   dsb                                                     \n" \
        : "=r" ( ulNewBASEPRI ) : "i" ( configMAX_SYSCALL_INTERRUPT_PRIORITY ) : "memory"
    );
}
 8000378:	bf00      	nop
 800037a:	bf00      	nop
 800037c:	e7fd      	b.n	800037a <main+0x4a>
	 BaseType_t task2_status = xTaskCreate(task2_handler,"Task-2",200,"Hello from Task2",2,&task2_handle);
 800037e:	4b14      	ldr	r3, [pc, #80]	@ (80003d0 <main+0xa0>)
 8000380:	9301      	str	r3, [sp, #4]
 8000382:	2302      	movs	r3, #2
 8000384:	9300      	str	r3, [sp, #0]
 8000386:	4b13      	ldr	r3, [pc, #76]	@ (80003d4 <main+0xa4>)
 8000388:	22c8      	movs	r2, #200	@ 0xc8
 800038a:	4913      	ldr	r1, [pc, #76]	@ (80003d8 <main+0xa8>)
 800038c:	4813      	ldr	r0, [pc, #76]	@ (80003dc <main+0xac>)
 800038e:	f002 f806 	bl	800239e <xTaskCreate>
 8000392:	60b8      	str	r0, [r7, #8]
     configASSERT(task2_status== pdPASS);
 8000394:	68bb      	ldr	r3, [r7, #8]
 8000396:	2b01      	cmp	r3, #1
 8000398:	d00b      	beq.n	80003b2 <main+0x82>
    __asm volatile
 800039a:	f04f 0350 	mov.w	r3, #80	@ 0x50
 800039e:	f383 8811 	msr	BASEPRI, r3
 80003a2:	f3bf 8f6f 	isb	sy
 80003a6:	f3bf 8f4f 	dsb	sy
 80003aa:	603b      	str	r3, [r7, #0]
}
 80003ac:	bf00      	nop
 80003ae:	bf00      	nop
 80003b0:	e7fd      	b.n	80003ae <main+0x7e>

     vTaskStartScheduler();
 80003b2:	f002 f9b5 	bl	8002720 <vTaskStartScheduler>
	while(1){
 80003b6:	bf00      	nop
 80003b8:	e7fd      	b.n	80003b6 <main+0x86>
 80003ba:	bf00      	nop
 80003bc:	e0001000 	.word	0xe0001000
 80003c0:	20000084 	.word	0x20000084
 80003c4:	08004240 	.word	0x08004240
 80003c8:	08004254 	.word	0x08004254
 80003cc:	080002e1 	.word	0x080002e1
 80003d0:	20000088 	.word	0x20000088
 80003d4:	0800425c 	.word	0x0800425c
 80003d8:	08004270 	.word	0x08004270
 80003dc:	08000309 	.word	0x08000309

080003e0 <_read>:
  _kill(status, -1);
  while (1) {}    /* Make sure we hang here */
}

__attribute__((weak)) int _read(int file, char *ptr, int len)
{
 80003e0:	b580      	push	{r7, lr}
 80003e2:	b086      	sub	sp, #24
 80003e4:	af00      	add	r7, sp, #0
 80003e6:	60f8      	str	r0, [r7, #12]
 80003e8:	60b9      	str	r1, [r7, #8]
 80003ea:	607a      	str	r2, [r7, #4]
  (void)file;
  int DataIdx;

  for (DataIdx = 0; DataIdx < len; DataIdx++)
 80003ec:	2300      	movs	r3, #0
 80003ee:	617b      	str	r3, [r7, #20]
 80003f0:	e00a      	b.n	8000408 <_read+0x28>
  {
    *ptr++ = __io_getchar();
 80003f2:	f3af 8000 	nop.w
 80003f6:	4601      	mov	r1, r0
 80003f8:	68bb      	ldr	r3, [r7, #8]
 80003fa:	1c5a      	adds	r2, r3, #1
 80003fc:	60ba      	str	r2, [r7, #8]
 80003fe:	b2ca      	uxtb	r2, r1
 8000400:	701a      	strb	r2, [r3, #0]
  for (DataIdx = 0; DataIdx < len; DataIdx++)
 8000402:	697b      	ldr	r3, [r7, #20]
 8000404:	3301      	adds	r3, #1
 8000406:	617b      	str	r3, [r7, #20]
 8000408:	697a      	ldr	r2, [r7, #20]
 800040a:	687b      	ldr	r3, [r7, #4]
 800040c:	429a      	cmp	r2, r3
 800040e:	dbf0      	blt.n	80003f2 <_read+0x12>
  }

  return len;
 8000410:	687b      	ldr	r3, [r7, #4]
}
 8000412:	4618      	mov	r0, r3
 8000414:	3718      	adds	r7, #24
 8000416:	46bd      	mov	sp, r7
 8000418:	bd80      	pop	{r7, pc}

0800041a <_close>:
  }
  return len;
}

int _close(int file)
{
 800041a:	b480      	push	{r7}
 800041c:	b083      	sub	sp, #12
 800041e:	af00      	add	r7, sp, #0
 8000420:	6078      	str	r0, [r7, #4]
  (void)file;
  return -1;
 8000422:	f04f 33ff 	mov.w	r3, #4294967295
}
 8000426:	4618      	mov	r0, r3
 8000428:	370c      	adds	r7, #12
 800042a:	46bd      	mov	sp, r7
 800042c:	f85d 7b04 	ldr.w	r7, [sp], #4
 8000430:	4770      	bx	lr

08000432 <_fstat>:


int _fstat(int file, struct stat *st)
{
 8000432:	b480      	push	{r7}
 8000434:	b083      	sub	sp, #12
 8000436:	af00      	add	r7, sp, #0
 8000438:	6078      	str	r0, [r7, #4]
 800043a:	6039      	str	r1, [r7, #0]
  (void)file;
  st->st_mode = S_IFCHR;
 800043c:	683b      	ldr	r3, [r7, #0]
 800043e:	f44f 5200 	mov.w	r2, #8192	@ 0x2000
 8000442:	605a      	str	r2, [r3, #4]
  return 0;
 8000444:	2300      	movs	r3, #0
}
 8000446:	4618      	mov	r0, r3
 8000448:	370c      	adds	r7, #12
 800044a:	46bd      	mov	sp, r7
 800044c:	f85d 7b04 	ldr.w	r7, [sp], #4
 8000450:	4770      	bx	lr

08000452 <_isatty>:

int _isatty(int file)
{
 8000452:	b480      	push	{r7}
 8000454:	b083      	sub	sp, #12
 8000456:	af00      	add	r7, sp, #0
 8000458:	6078      	str	r0, [r7, #4]
  (void)file;
  return 1;
 800045a:	2301      	movs	r3, #1
}
 800045c:	4618      	mov	r0, r3
 800045e:	370c      	adds	r7, #12
 8000460:	46bd      	mov	sp, r7
 8000462:	f85d 7b04 	ldr.w	r7, [sp], #4
 8000466:	4770      	bx	lr

08000468 <_lseek>:

int _lseek(int file, int ptr, int dir)
{
 8000468:	b480      	push	{r7}
 800046a:	b085      	sub	sp, #20
 800046c:	af00      	add	r7, sp, #0
 800046e:	60f8      	str	r0, [r7, #12]
 8000470:	60b9      	str	r1, [r7, #8]
 8000472:	607a      	str	r2, [r7, #4]
  (void)file;
  (void)ptr;
  (void)dir;
  return 0;
 8000474:	2300      	movs	r3, #0
}
 8000476:	4618      	mov	r0, r3
 8000478:	3714      	adds	r7, #20
 800047a:	46bd      	mov	sp, r7
 800047c:	f85d 7b04 	ldr.w	r7, [sp], #4
 8000480:	4770      	bx	lr
	...

08000484 <Reset_Handler>:

  .section .text.Reset_Handler
  .weak Reset_Handler
  .type Reset_Handler, %function
Reset_Handler:
  ldr   r0, =_estack
 8000484:	480d      	ldr	r0, [pc, #52]	@ (80004bc <LoopForever+0x2>)
  mov   sp, r0          /* set stack pointer */
 8000486:	4685      	mov	sp, r0
/* Call the clock system initialization function.*/
  bl  SystemInit
 8000488:	f3af 8000 	nop.w

/* Copy the data segment initializers from flash to SRAM */
  ldr r0, =_sdata
 800048c:	480c      	ldr	r0, [pc, #48]	@ (80004c0 <LoopForever+0x6>)
  ldr r1, =_edata
 800048e:	490d      	ldr	r1, [pc, #52]	@ (80004c4 <LoopForever+0xa>)
  ldr r2, =_sidata
 8000490:	4a0d      	ldr	r2, [pc, #52]	@ (80004c8 <LoopForever+0xe>)
  movs r3, #0
 8000492:	2300      	movs	r3, #0
  b LoopCopyDataInit
 8000494:	e002      	b.n	800049c <LoopCopyDataInit>

08000496 <CopyDataInit>:

CopyDataInit:
  ldr r4, [r2, r3]
 8000496:	58d4      	ldr	r4, [r2, r3]
  str r4, [r0, r3]
 8000498:	50c4      	str	r4, [r0, r3]
  adds r3, r3, #4
 800049a:	3304      	adds	r3, #4

0800049c <LoopCopyDataInit>:

LoopCopyDataInit:
  adds r4, r0, r3
 800049c:	18c4      	adds	r4, r0, r3
  cmp r4, r1
 800049e:	428c      	cmp	r4, r1
  bcc CopyDataInit
 80004a0:	d3f9      	bcc.n	8000496 <CopyDataInit>

/* Zero fill the bss segment. */
  ldr r2, =_sbss
 80004a2:	4a0a      	ldr	r2, [pc, #40]	@ (80004cc <LoopForever+0x12>)
  ldr r4, =_ebss
 80004a4:	4c0a      	ldr	r4, [pc, #40]	@ (80004d0 <LoopForever+0x16>)
  movs r3, #0
 80004a6:	2300      	movs	r3, #0
  b LoopFillZerobss
 80004a8:	e001      	b.n	80004ae <LoopFillZerobss>

080004aa <FillZerobss>:

FillZerobss:
  str  r3, [r2]
 80004aa:	6013      	str	r3, [r2, #0]
  adds r2, r2, #4
 80004ac:	3204      	adds	r2, #4

080004ae <LoopFillZerobss>:

LoopFillZerobss:
  cmp r2, r4
 80004ae:	42a2      	cmp	r2, r4
  bcc FillZerobss
 80004b0:	d3fb      	bcc.n	80004aa <FillZerobss>

/* Call static constructors */
  bl __libc_init_array
 80004b2:	f003 fc3d 	bl	8003d30 <__libc_init_array>
/* Call the application's entry point.*/
  bl main
 80004b6:	f7ff ff3b 	bl	8000330 <main>

080004ba <LoopForever>:

LoopForever:
  b LoopForever
 80004ba:	e7fe      	b.n	80004ba <LoopForever>
  ldr   r0, =_estack
 80004bc:	20008000 	.word	0x20008000
  ldr r0, =_sdata
 80004c0:	20000000 	.word	0x20000000
  ldr r1, =_edata
 80004c4:	20000064 	.word	0x20000064
  ldr r2, =_sidata
 80004c8:	0800437c 	.word	0x0800437c
  ldr r2, =_sbss
 80004cc:	20000064 	.word	0x20000064
  ldr r4, =_ebss
 80004d0:	200049a4 	.word	0x200049a4

080004d4 <ADC_IRQHandler>:
 * @retval : None
*/
  .section .text.Default_Handler,"ax",%progbits
Default_Handler:
Infinite_Loop:
  b Infinite_Loop
 80004d4:	e7fe      	b.n	80004d4 <ADC_IRQHandler>
	...

080004d8 <_cbSendSystemDesc>:
*       _cbSendSystemDesc()
*
*  Function description
*    Sends SystemView description strings.
*/
static void _cbSendSystemDesc(void) {
 80004d8:	b580      	push	{r7, lr}
 80004da:	af00      	add	r7, sp, #0
  SEGGER_SYSVIEW_SendSysDesc("N="SYSVIEW_APP_NAME",D="SYSVIEW_DEVICE_NAME",O=FreeRTOS");
 80004dc:	4803      	ldr	r0, [pc, #12]	@ (80004ec <_cbSendSystemDesc+0x14>)
 80004de:	f001 fafb 	bl	8001ad8 <SEGGER_SYSVIEW_SendSysDesc>
  SEGGER_SYSVIEW_SendSysDesc("I#15=SysTick");
 80004e2:	4803      	ldr	r0, [pc, #12]	@ (80004f0 <_cbSendSystemDesc+0x18>)
 80004e4:	f001 faf8 	bl	8001ad8 <SEGGER_SYSVIEW_SendSysDesc>
}
 80004e8:	bf00      	nop
 80004ea:	bd80      	pop	{r7, pc}
 80004ec:	08004278 	.word	0x08004278
 80004f0:	080042ac 	.word	0x080042ac

080004f4 <SEGGER_SYSVIEW_Conf>:
*
*       Global functions
*
**********************************************************************
*/
void SEGGER_SYSVIEW_Conf(void) {
 80004f4:	b580      	push	{r7, lr}
 80004f6:	af00      	add	r7, sp, #0
  SEGGER_SYSVIEW_Init(SYSVIEW_TIMESTAMP_FREQ, SYSVIEW_CPU_FREQ, 
 80004f8:	4b06      	ldr	r3, [pc, #24]	@ (8000514 <SEGGER_SYSVIEW_Conf+0x20>)
 80004fa:	6818      	ldr	r0, [r3, #0]
 80004fc:	4b05      	ldr	r3, [pc, #20]	@ (8000514 <SEGGER_SYSVIEW_Conf+0x20>)
 80004fe:	6819      	ldr	r1, [r3, #0]
 8000500:	4b05      	ldr	r3, [pc, #20]	@ (8000518 <SEGGER_SYSVIEW_Conf+0x24>)
 8000502:	4a06      	ldr	r2, [pc, #24]	@ (800051c <SEGGER_SYSVIEW_Conf+0x28>)
 8000504:	f000 fea4 	bl	8001250 <SEGGER_SYSVIEW_Init>
                      &SYSVIEW_X_OS_TraceAPI, _cbSendSystemDesc);
  SEGGER_SYSVIEW_SetRAMBase(SYSVIEW_RAM_BASE);
 8000508:	f04f 5080 	mov.w	r0, #268435456	@ 0x10000000
 800050c:	f000 fee4 	bl	80012d8 <SEGGER_SYSVIEW_SetRAMBase>
}
 8000510:	bf00      	nop
 8000512:	bd80      	pop	{r7, pc}
 8000514:	20000000 	.word	0x20000000
 8000518:	080004d9 	.word	0x080004d9
 800051c:	08004348 	.word	0x08004348

08000520 <_cbSendTaskList>:
*  Function description
*    This function is part of the link between FreeRTOS and SYSVIEW.
*    Called from SystemView when asked by the host, it uses SYSVIEW
*    functions to send the entire task list to the host.
*/
static void _cbSendTaskList(void) {
 8000520:	b5f0      	push	{r4, r5, r6, r7, lr}
 8000522:	b085      	sub	sp, #20
 8000524:	af02      	add	r7, sp, #8
  unsigned n;

  for (n = 0; n < _NumTasks; n++) {
 8000526:	2300      	movs	r3, #0
 8000528:	607b      	str	r3, [r7, #4]
 800052a:	e033      	b.n	8000594 <_cbSendTaskList+0x74>
#if INCLUDE_uxTaskGetStackHighWaterMark // Report Task Stack High Watermark
    _aTasks[n].uStackHighWaterMark = uxTaskGetStackHighWaterMark((TaskHandle_t)_aTasks[n].xHandle);
#endif
    SYSVIEW_SendTaskInfo((U32)_aTasks[n].xHandle, _aTasks[n].pcTaskName, (unsigned)_aTasks[n].uxCurrentPriority, (U32)_aTasks[n].pxStack, (unsigned)_aTasks[n].uStackHighWaterMark);
 800052c:	491e      	ldr	r1, [pc, #120]	@ (80005a8 <_cbSendTaskList+0x88>)
 800052e:	687a      	ldr	r2, [r7, #4]
 8000530:	4613      	mov	r3, r2
 8000532:	009b      	lsls	r3, r3, #2
 8000534:	4413      	add	r3, r2
 8000536:	009b      	lsls	r3, r3, #2
 8000538:	440b      	add	r3, r1
 800053a:	6818      	ldr	r0, [r3, #0]
 800053c:	491a      	ldr	r1, [pc, #104]	@ (80005a8 <_cbSendTaskList+0x88>)
 800053e:	687a      	ldr	r2, [r7, #4]
 8000540:	4613      	mov	r3, r2
 8000542:	009b      	lsls	r3, r3, #2
 8000544:	4413      	add	r3, r2
 8000546:	009b      	lsls	r3, r3, #2
 8000548:	440b      	add	r3, r1
 800054a:	3304      	adds	r3, #4
 800054c:	6819      	ldr	r1, [r3, #0]
 800054e:	4c16      	ldr	r4, [pc, #88]	@ (80005a8 <_cbSendTaskList+0x88>)
 8000550:	687a      	ldr	r2, [r7, #4]
 8000552:	4613      	mov	r3, r2
 8000554:	009b      	lsls	r3, r3, #2
 8000556:	4413      	add	r3, r2
 8000558:	009b      	lsls	r3, r3, #2
 800055a:	4423      	add	r3, r4
 800055c:	3308      	adds	r3, #8
 800055e:	681c      	ldr	r4, [r3, #0]
 8000560:	4d11      	ldr	r5, [pc, #68]	@ (80005a8 <_cbSendTaskList+0x88>)
 8000562:	687a      	ldr	r2, [r7, #4]
 8000564:	4613      	mov	r3, r2
 8000566:	009b      	lsls	r3, r3, #2
 8000568:	4413      	add	r3, r2
 800056a:	009b      	lsls	r3, r3, #2
 800056c:	442b      	add	r3, r5
 800056e:	330c      	adds	r3, #12
 8000570:	681d      	ldr	r5, [r3, #0]
 8000572:	4e0d      	ldr	r6, [pc, #52]	@ (80005a8 <_cbSendTaskList+0x88>)
 8000574:	687a      	ldr	r2, [r7, #4]
 8000576:	4613      	mov	r3, r2
 8000578:	009b      	lsls	r3, r3, #2
 800057a:	4413      	add	r3, r2
 800057c:	009b      	lsls	r3, r3, #2
 800057e:	4433      	add	r3, r6
 8000580:	3310      	adds	r3, #16
 8000582:	681b      	ldr	r3, [r3, #0]
 8000584:	9300      	str	r3, [sp, #0]
 8000586:	462b      	mov	r3, r5
 8000588:	4622      	mov	r2, r4
 800058a:	f000 f8bd 	bl	8000708 <SYSVIEW_SendTaskInfo>
  for (n = 0; n < _NumTasks; n++) {
 800058e:	687b      	ldr	r3, [r7, #4]
 8000590:	3301      	adds	r3, #1
 8000592:	607b      	str	r3, [r7, #4]
 8000594:	4b05      	ldr	r3, [pc, #20]	@ (80005ac <_cbSendTaskList+0x8c>)
 8000596:	681b      	ldr	r3, [r3, #0]
 8000598:	687a      	ldr	r2, [r7, #4]
 800059a:	429a      	cmp	r2, r3
 800059c:	d3c6      	bcc.n	800052c <_cbSendTaskList+0xc>
  }
}
 800059e:	bf00      	nop
 80005a0:	bf00      	nop
 80005a2:	370c      	adds	r7, #12
 80005a4:	46bd      	mov	sp, r7
 80005a6:	bdf0      	pop	{r4, r5, r6, r7, pc}
 80005a8:	2000008c 	.word	0x2000008c
 80005ac:	2000012c 	.word	0x2000012c

080005b0 <_cbGetTime>:
*  Function description
*    This function is part of the link between FreeRTOS and SYSVIEW.
*    Called from SystemView when asked by the host, returns the
*    current system time in micro seconds.
*/
static U64 _cbGetTime(void) {
 80005b0:	e92d 4fb0 	stmdb	sp!, {r4, r5, r7, r8, r9, sl, fp, lr}
 80005b4:	b082      	sub	sp, #8
 80005b6:	af00      	add	r7, sp, #0
    Time = xTaskGetTickCountFromISR();
  } else {
    Time = xTaskGetTickCount();
  }
#else
  Time = xTaskGetTickCountFromISR();
 80005b8:	f002 fa1e 	bl	80029f8 <xTaskGetTickCountFromISR>
 80005bc:	4603      	mov	r3, r0
 80005be:	2200      	movs	r2, #0
 80005c0:	469a      	mov	sl, r3
 80005c2:	4693      	mov	fp, r2
 80005c4:	e9c7 ab00 	strd	sl, fp, [r7]
#endif
  Time *= portTICK_PERIOD_MS;
  Time *= 1000;
 80005c8:	e9d7 0100 	ldrd	r0, r1, [r7]
 80005cc:	4602      	mov	r2, r0
 80005ce:	460b      	mov	r3, r1
 80005d0:	f04f 0a00 	mov.w	sl, #0
 80005d4:	f04f 0b00 	mov.w	fp, #0
 80005d8:	ea4f 1b43 	mov.w	fp, r3, lsl #5
 80005dc:	ea4b 6bd2 	orr.w	fp, fp, r2, lsr #27
 80005e0:	ea4f 1a42 	mov.w	sl, r2, lsl #5
 80005e4:	4652      	mov	r2, sl
 80005e6:	465b      	mov	r3, fp
 80005e8:	1a14      	subs	r4, r2, r0
 80005ea:	eb63 0501 	sbc.w	r5, r3, r1
 80005ee:	f04f 0200 	mov.w	r2, #0
 80005f2:	f04f 0300 	mov.w	r3, #0
 80005f6:	00ab      	lsls	r3, r5, #2
 80005f8:	ea43 7394 	orr.w	r3, r3, r4, lsr #30
 80005fc:	00a2      	lsls	r2, r4, #2
 80005fe:	4614      	mov	r4, r2
 8000600:	461d      	mov	r5, r3
 8000602:	eb14 0800 	adds.w	r8, r4, r0
 8000606:	eb45 0901 	adc.w	r9, r5, r1
 800060a:	f04f 0200 	mov.w	r2, #0
 800060e:	f04f 0300 	mov.w	r3, #0
 8000612:	ea4f 03c9 	mov.w	r3, r9, lsl #3
 8000616:	ea43 7358 	orr.w	r3, r3, r8, lsr #29
 800061a:	ea4f 02c8 	mov.w	r2, r8, lsl #3
 800061e:	4690      	mov	r8, r2
 8000620:	4699      	mov	r9, r3
 8000622:	e9c7 8900 	strd	r8, r9, [r7]
  return Time;
 8000626:	e9d7 2300 	ldrd	r2, r3, [r7]
}
 800062a:	4610      	mov	r0, r2
 800062c:	4619      	mov	r1, r3
 800062e:	3708      	adds	r7, #8
 8000630:	46bd      	mov	sp, r7
 8000632:	e8bd 8fb0 	ldmia.w	sp!, {r4, r5, r7, r8, r9, sl, fp, pc}
	...

08000638 <SYSVIEW_AddTask>:
*       SYSVIEW_AddTask()
*
*  Function description
*    Add a task to the internal list and record its information.
*/
void SYSVIEW_AddTask(U32 xHandle, const char* pcTaskName, unsigned uxCurrentPriority, U32  pxStack, unsigned uStackHighWaterMark) {
 8000638:	b580      	push	{r7, lr}
 800063a:	b086      	sub	sp, #24
 800063c:	af02      	add	r7, sp, #8
 800063e:	60f8      	str	r0, [r7, #12]
 8000640:	60b9      	str	r1, [r7, #8]
 8000642:	607a      	str	r2, [r7, #4]
 8000644:	603b      	str	r3, [r7, #0]
  
  if (memcmp(pcTaskName, "IDLE", 5) == 0) {
 8000646:	2205      	movs	r2, #5
 8000648:	492b      	ldr	r1, [pc, #172]	@ (80006f8 <SYSVIEW_AddTask+0xc0>)
 800064a:	68b8      	ldr	r0, [r7, #8]
 800064c:	f003 fb24 	bl	8003c98 <memcmp>
 8000650:	4603      	mov	r3, r0
 8000652:	2b00      	cmp	r3, #0
 8000654:	d04b      	beq.n	80006ee <SYSVIEW_AddTask+0xb6>
    return;
  }
  
  if (_NumTasks >= SYSVIEW_FREERTOS_MAX_NOF_TASKS) {
 8000656:	4b29      	ldr	r3, [pc, #164]	@ (80006fc <SYSVIEW_AddTask+0xc4>)
 8000658:	681b      	ldr	r3, [r3, #0]
 800065a:	2b07      	cmp	r3, #7
 800065c:	d903      	bls.n	8000666 <SYSVIEW_AddTask+0x2e>
    SEGGER_SYSVIEW_Warn("SYSTEMVIEW: Could not record task information. Maximum number of tasks reached.");
 800065e:	4828      	ldr	r0, [pc, #160]	@ (8000700 <SYSVIEW_AddTask+0xc8>)
 8000660:	f001 fd76 	bl	8002150 <SEGGER_SYSVIEW_Warn>
    return;
 8000664:	e044      	b.n	80006f0 <SYSVIEW_AddTask+0xb8>
  }

  _aTasks[_NumTasks].xHandle = xHandle;
 8000666:	4b25      	ldr	r3, [pc, #148]	@ (80006fc <SYSVIEW_AddTask+0xc4>)
 8000668:	681a      	ldr	r2, [r3, #0]
 800066a:	4926      	ldr	r1, [pc, #152]	@ (8000704 <SYSVIEW_AddTask+0xcc>)
 800066c:	4613      	mov	r3, r2
 800066e:	009b      	lsls	r3, r3, #2
 8000670:	4413      	add	r3, r2
 8000672:	009b      	lsls	r3, r3, #2
 8000674:	440b      	add	r3, r1
 8000676:	68fa      	ldr	r2, [r7, #12]
 8000678:	601a      	str	r2, [r3, #0]
  _aTasks[_NumTasks].pcTaskName = pcTaskName;
 800067a:	4b20      	ldr	r3, [pc, #128]	@ (80006fc <SYSVIEW_AddTask+0xc4>)
 800067c:	681a      	ldr	r2, [r3, #0]
 800067e:	4921      	ldr	r1, [pc, #132]	@ (8000704 <SYSVIEW_AddTask+0xcc>)
 8000680:	4613      	mov	r3, r2
 8000682:	009b      	lsls	r3, r3, #2
 8000684:	4413      	add	r3, r2
 8000686:	009b      	lsls	r3, r3, #2
 8000688:	440b      	add	r3, r1
 800068a:	3304      	adds	r3, #4
 800068c:	68ba      	ldr	r2, [r7, #8]
 800068e:	601a      	str	r2, [r3, #0]
  _aTasks[_NumTasks].uxCurrentPriority = uxCurrentPriority;
 8000690:	4b1a      	ldr	r3, [pc, #104]	@ (80006fc <SYSVIEW_AddTask+0xc4>)
 8000692:	681a      	ldr	r2, [r3, #0]
 8000694:	491b      	ldr	r1, [pc, #108]	@ (8000704 <SYSVIEW_AddTask+0xcc>)
 8000696:	4613      	mov	r3, r2
 8000698:	009b      	lsls	r3, r3, #2
 800069a:	4413      	add	r3, r2
 800069c:	009b      	lsls	r3, r3, #2
 800069e:	440b      	add	r3, r1
 80006a0:	3308      	adds	r3, #8
 80006a2:	687a      	ldr	r2, [r7, #4]
 80006a4:	601a      	str	r2, [r3, #0]
  _aTasks[_NumTasks].pxStack = pxStack;
 80006a6:	4b15      	ldr	r3, [pc, #84]	@ (80006fc <SYSVIEW_AddTask+0xc4>)
 80006a8:	681a      	ldr	r2, [r3, #0]
 80006aa:	4916      	ldr	r1, [pc, #88]	@ (8000704 <SYSVIEW_AddTask+0xcc>)
 80006ac:	4613      	mov	r3, r2
 80006ae:	009b      	lsls	r3, r3, #2
 80006b0:	4413      	add	r3, r2
 80006b2:	009b      	lsls	r3, r3, #2
 80006b4:	440b      	add	r3, r1
 80006b6:	330c      	adds	r3, #12
 80006b8:	683a      	ldr	r2, [r7, #0]
 80006ba:	601a      	str	r2, [r3, #0]
  _aTasks[_NumTasks].uStackHighWaterMark = uStackHighWaterMark;
 80006bc:	4b0f      	ldr	r3, [pc, #60]	@ (80006fc <SYSVIEW_AddTask+0xc4>)
 80006be:	681a      	ldr	r2, [r3, #0]
 80006c0:	4910      	ldr	r1, [pc, #64]	@ (8000704 <SYSVIEW_AddTask+0xcc>)
 80006c2:	4613      	mov	r3, r2
 80006c4:	009b      	lsls	r3, r3, #2
 80006c6:	4413      	add	r3, r2
 80006c8:	009b      	lsls	r3, r3, #2
 80006ca:	440b      	add	r3, r1
 80006cc:	3310      	adds	r3, #16
 80006ce:	69ba      	ldr	r2, [r7, #24]
 80006d0:	601a      	str	r2, [r3, #0]

  _NumTasks++;
 80006d2:	4b0a      	ldr	r3, [pc, #40]	@ (80006fc <SYSVIEW_AddTask+0xc4>)
 80006d4:	681b      	ldr	r3, [r3, #0]
 80006d6:	3301      	adds	r3, #1
 80006d8:	4a08      	ldr	r2, [pc, #32]	@ (80006fc <SYSVIEW_AddTask+0xc4>)
 80006da:	6013      	str	r3, [r2, #0]

  SYSVIEW_SendTaskInfo(xHandle, pcTaskName,uxCurrentPriority, pxStack, uStackHighWaterMark);
 80006dc:	69bb      	ldr	r3, [r7, #24]
 80006de:	9300      	str	r3, [sp, #0]
 80006e0:	683b      	ldr	r3, [r7, #0]
 80006e2:	687a      	ldr	r2, [r7, #4]
 80006e4:	68b9      	ldr	r1, [r7, #8]
 80006e6:	68f8      	ldr	r0, [r7, #12]
 80006e8:	f000 f80e 	bl	8000708 <SYSVIEW_SendTaskInfo>
 80006ec:	e000      	b.n	80006f0 <SYSVIEW_AddTask+0xb8>
    return;
 80006ee:	bf00      	nop

}
 80006f0:	3710      	adds	r7, #16
 80006f2:	46bd      	mov	sp, r7
 80006f4:	bd80      	pop	{r7, pc}
 80006f6:	bf00      	nop
 80006f8:	080042bc 	.word	0x080042bc
 80006fc:	2000012c 	.word	0x2000012c
 8000700:	080042c4 	.word	0x080042c4
 8000704:	2000008c 	.word	0x2000008c

08000708 <SYSVIEW_SendTaskInfo>:
*       SYSVIEW_SendTaskInfo()
*
*  Function description
*    Record task information.
*/
void SYSVIEW_SendTaskInfo(U32 TaskID, const char* sName, unsigned Prio, U32 StackBase, unsigned StackSize) {
 8000708:	b580      	push	{r7, lr}
 800070a:	b08a      	sub	sp, #40	@ 0x28
 800070c:	af00      	add	r7, sp, #0
 800070e:	60f8      	str	r0, [r7, #12]
 8000710:	60b9      	str	r1, [r7, #8]
 8000712:	607a      	str	r2, [r7, #4]
 8000714:	603b      	str	r3, [r7, #0]
  SEGGER_SYSVIEW_TASKINFO TaskInfo;

  memset(&TaskInfo, 0, sizeof(TaskInfo)); // Fill all elements with 0 to allow extending the structure in future version without breaking the code
 8000716:	f107 0310 	add.w	r3, r7, #16
 800071a:	2218      	movs	r2, #24
 800071c:	2100      	movs	r1, #0
 800071e:	4618      	mov	r0, r3
 8000720:	f003 faca 	bl	8003cb8 <memset>
  TaskInfo.TaskID     = TaskID;
 8000724:	68fb      	ldr	r3, [r7, #12]
 8000726:	613b      	str	r3, [r7, #16]
  TaskInfo.sName      = sName;
 8000728:	68bb      	ldr	r3, [r7, #8]
 800072a:	617b      	str	r3, [r7, #20]
  TaskInfo.Prio       = Prio;
 800072c:	687b      	ldr	r3, [r7, #4]
 800072e:	61bb      	str	r3, [r7, #24]
  TaskInfo.StackBase  = StackBase;
 8000730:	683b      	ldr	r3, [r7, #0]
 8000732:	61fb      	str	r3, [r7, #28]
  TaskInfo.StackSize  = StackSize;
 8000734:	6b3b      	ldr	r3, [r7, #48]	@ 0x30
 8000736:	623b      	str	r3, [r7, #32]
  SEGGER_SYSVIEW_SendTaskInfo(&TaskInfo);
 8000738:	f107 0310 	add.w	r3, r7, #16
 800073c:	4618      	mov	r0, r3
 800073e:	f001 f8d3 	bl	80018e8 <SEGGER_SYSVIEW_SendTaskInfo>
}
 8000742:	bf00      	nop
 8000744:	3728      	adds	r7, #40	@ 0x28
 8000746:	46bd      	mov	sp, r7
 8000748:	bd80      	pop	{r7, pc}
	...

0800074c <_DoInit>:
      if (pRTTCBInit->acID[0] != 'S') {                                                      \
        _DoInit();                                                                           \
      }                                                                                      \
    } while (0)

static void _DoInit(void) {
 800074c:	b580      	push	{r7, lr}
 800074e:	b082      	sub	sp, #8
 8000750:	af00      	add	r7, sp, #0
  static const char _aInitStr[] = "\0\0\0\0\0\0TTR REGGES";  // Init complete ID string to make sure that things also work if RTT is linked to a no-init memory area
  unsigned i;
  //
  // Initialize control block
  //
  p                     = (volatile SEGGER_RTT_CB*)((uintptr_t)&_SEGGER_RTT + SEGGER_RTT_UNCACHED_OFF);  // Access control block uncached so that nothing in the cache ever becomes dirty and all changes are visible in HW directly
 8000752:	4b26      	ldr	r3, [pc, #152]	@ (80007ec <_DoInit+0xa0>)
 8000754:	603b      	str	r3, [r7, #0]
  memset((SEGGER_RTT_CB*)p, 0, sizeof(_SEGGER_RTT));         // Make sure that the RTT CB is always zero initialized.
 8000756:	22a8      	movs	r2, #168	@ 0xa8
 8000758:	2100      	movs	r1, #0
 800075a:	6838      	ldr	r0, [r7, #0]
 800075c:	f003 faac 	bl	8003cb8 <memset>
  p->MaxNumUpBuffers    = SEGGER_RTT_MAX_NUM_UP_BUFFERS;
 8000760:	683b      	ldr	r3, [r7, #0]
 8000762:	2203      	movs	r2, #3
 8000764:	611a      	str	r2, [r3, #16]
  p->MaxNumDownBuffers  = SEGGER_RTT_MAX_NUM_DOWN_BUFFERS;
 8000766:	683b      	ldr	r3, [r7, #0]
 8000768:	2203      	movs	r2, #3
 800076a:	615a      	str	r2, [r3, #20]
  //
  // Initialize up buffer 0
  //
  p->aUp[0].sName         = "Terminal";
 800076c:	683b      	ldr	r3, [r7, #0]
 800076e:	4a20      	ldr	r2, [pc, #128]	@ (80007f0 <_DoInit+0xa4>)
 8000770:	619a      	str	r2, [r3, #24]
  p->aUp[0].pBuffer       = _acUpBuffer;
 8000772:	683b      	ldr	r3, [r7, #0]
 8000774:	4a1f      	ldr	r2, [pc, #124]	@ (80007f4 <_DoInit+0xa8>)
 8000776:	61da      	str	r2, [r3, #28]
  p->aUp[0].SizeOfBuffer  = BUFFER_SIZE_UP;
 8000778:	683b      	ldr	r3, [r7, #0]
 800077a:	f44f 6280 	mov.w	r2, #1024	@ 0x400
 800077e:	621a      	str	r2, [r3, #32]
  p->aUp[0].RdOff         = 0u;
 8000780:	683b      	ldr	r3, [r7, #0]
 8000782:	2200      	movs	r2, #0
 8000784:	629a      	str	r2, [r3, #40]	@ 0x28
  p->aUp[0].WrOff         = 0u;
 8000786:	683b      	ldr	r3, [r7, #0]
 8000788:	2200      	movs	r2, #0
 800078a:	625a      	str	r2, [r3, #36]	@ 0x24
  p->aUp[0].Flags         = SEGGER_RTT_MODE_DEFAULT;
 800078c:	683b      	ldr	r3, [r7, #0]
 800078e:	2200      	movs	r2, #0
 8000790:	62da      	str	r2, [r3, #44]	@ 0x2c
  //
  // Initialize down buffer 0
  //
  p->aDown[0].sName         = "Terminal";
 8000792:	683b      	ldr	r3, [r7, #0]
 8000794:	4a16      	ldr	r2, [pc, #88]	@ (80007f0 <_DoInit+0xa4>)
 8000796:	661a      	str	r2, [r3, #96]	@ 0x60
  p->aDown[0].pBuffer       = _acDownBuffer;
 8000798:	683b      	ldr	r3, [r7, #0]
 800079a:	4a17      	ldr	r2, [pc, #92]	@ (80007f8 <_DoInit+0xac>)
 800079c:	665a      	str	r2, [r3, #100]	@ 0x64
  p->aDown[0].SizeOfBuffer  = BUFFER_SIZE_DOWN;
 800079e:	683b      	ldr	r3, [r7, #0]
 80007a0:	2210      	movs	r2, #16
 80007a2:	669a      	str	r2, [r3, #104]	@ 0x68
  p->aDown[0].RdOff         = 0u;
 80007a4:	683b      	ldr	r3, [r7, #0]
 80007a6:	2200      	movs	r2, #0
 80007a8:	671a      	str	r2, [r3, #112]	@ 0x70
  p->aDown[0].WrOff         = 0u;
 80007aa:	683b      	ldr	r3, [r7, #0]
 80007ac:	2200      	movs	r2, #0
 80007ae:	66da      	str	r2, [r3, #108]	@ 0x6c
  p->aDown[0].Flags         = SEGGER_RTT_MODE_DEFAULT;
 80007b0:	683b      	ldr	r3, [r7, #0]
 80007b2:	2200      	movs	r2, #0
 80007b4:	675a      	str	r2, [r3, #116]	@ 0x74
  //
  // Finish initialization of the control block.
  // Copy Id string backwards to make sure that "SEGGER RTT" is not found in initializer memory (usually flash),
  // as this would cause J-Link to "find" the control block at a wrong address.
  //
  RTT__DMB();                       // Force order of memory accesses for cores that may perform out-of-order memory accesses
 80007b6:	f3bf 8f5f 	dmb	sy
  for (i = 0; i < sizeof(_aInitStr) - 1; ++i) {
 80007ba:	2300      	movs	r3, #0
 80007bc:	607b      	str	r3, [r7, #4]
 80007be:	e00c      	b.n	80007da <_DoInit+0x8e>
    p->acID[i] = _aInitStr[sizeof(_aInitStr) - 2 - i];  // Skip terminating \0 at the end of the array
 80007c0:	687b      	ldr	r3, [r7, #4]
 80007c2:	f1c3 030f 	rsb	r3, r3, #15
 80007c6:	4a0d      	ldr	r2, [pc, #52]	@ (80007fc <_DoInit+0xb0>)
 80007c8:	5cd1      	ldrb	r1, [r2, r3]
 80007ca:	683a      	ldr	r2, [r7, #0]
 80007cc:	687b      	ldr	r3, [r7, #4]
 80007ce:	4413      	add	r3, r2
 80007d0:	460a      	mov	r2, r1
 80007d2:	701a      	strb	r2, [r3, #0]
  for (i = 0; i < sizeof(_aInitStr) - 1; ++i) {
 80007d4:	687b      	ldr	r3, [r7, #4]
 80007d6:	3301      	adds	r3, #1
 80007d8:	607b      	str	r3, [r7, #4]
 80007da:	687b      	ldr	r3, [r7, #4]
 80007dc:	2b0f      	cmp	r3, #15
 80007de:	d9ef      	bls.n	80007c0 <_DoInit+0x74>
  }
  RTT__DMB();                       // Force order of memory accesses for cores that may perform out-of-order memory accesses
 80007e0:	f3bf 8f5f 	dmb	sy
}
 80007e4:	bf00      	nop
 80007e6:	3708      	adds	r7, #8
 80007e8:	46bd      	mov	sp, r7
 80007ea:	bd80      	pop	{r7, pc}
 80007ec:	20000130 	.word	0x20000130
 80007f0:	08004314 	.word	0x08004314
 80007f4:	200001d8 	.word	0x200001d8
 80007f8:	200005d8 	.word	0x200005d8
 80007fc:	08004350 	.word	0x08004350

08000800 <_WriteBlocking>:
*    NumBytes     Number of bytes to be stored in the SEGGER RTT control block.
*
*  Return value
*    >= 0 - Number of bytes written into buffer.
*/
static unsigned _WriteBlocking(SEGGER_RTT_BUFFER_UP* pRing, const char* pBuffer, unsigned NumBytes) {
 8000800:	b580      	push	{r7, lr}
 8000802:	b08a      	sub	sp, #40	@ 0x28
 8000804:	af00      	add	r7, sp, #0
 8000806:	60f8      	str	r0, [r7, #12]
 8000808:	60b9      	str	r1, [r7, #8]
 800080a:	607a      	str	r2, [r7, #4]
  unsigned WrOff;
  volatile char* pDst;
  //
  // Write data to buffer and handle wrap-around if necessary
  //
  NumBytesWritten = 0u;
 800080c:	2300      	movs	r3, #0
 800080e:	623b      	str	r3, [r7, #32]
  WrOff = pRing->WrOff;
 8000810:	68fb      	ldr	r3, [r7, #12]
 8000812:	68db      	ldr	r3, [r3, #12]
 8000814:	61fb      	str	r3, [r7, #28]
  do {
    RdOff = pRing->RdOff;                         // May be changed by host (debug probe) in the meantime
 8000816:	68fb      	ldr	r3, [r7, #12]
 8000818:	691b      	ldr	r3, [r3, #16]
 800081a:	61bb      	str	r3, [r7, #24]
    if (RdOff > WrOff) {
 800081c:	69ba      	ldr	r2, [r7, #24]
 800081e:	69fb      	ldr	r3, [r7, #28]
 8000820:	429a      	cmp	r2, r3
 8000822:	d905      	bls.n	8000830 <_WriteBlocking+0x30>
      NumBytesToWrite = RdOff - WrOff - 1u;
 8000824:	69ba      	ldr	r2, [r7, #24]
 8000826:	69fb      	ldr	r3, [r7, #28]
 8000828:	1ad3      	subs	r3, r2, r3
 800082a:	3b01      	subs	r3, #1
 800082c:	627b      	str	r3, [r7, #36]	@ 0x24
 800082e:	e007      	b.n	8000840 <_WriteBlocking+0x40>
    } else {
      NumBytesToWrite = pRing->SizeOfBuffer - (WrOff - RdOff + 1u);
 8000830:	68fb      	ldr	r3, [r7, #12]
 8000832:	689a      	ldr	r2, [r3, #8]
 8000834:	69b9      	ldr	r1, [r7, #24]
 8000836:	69fb      	ldr	r3, [r7, #28]
 8000838:	1acb      	subs	r3, r1, r3
 800083a:	4413      	add	r3, r2
 800083c:	3b01      	subs	r3, #1
 800083e:	627b      	str	r3, [r7, #36]	@ 0x24
    }
    NumBytesToWrite = MIN(NumBytesToWrite, (pRing->SizeOfBuffer - WrOff));      // Number of bytes that can be written until buffer wrap-around
 8000840:	68fb      	ldr	r3, [r7, #12]
 8000842:	689a      	ldr	r2, [r3, #8]
 8000844:	69fb      	ldr	r3, [r7, #28]
 8000846:	1ad3      	subs	r3, r2, r3
 8000848:	6a7a      	ldr	r2, [r7, #36]	@ 0x24
 800084a:	4293      	cmp	r3, r2
 800084c:	bf28      	it	cs
 800084e:	4613      	movcs	r3, r2
 8000850:	627b      	str	r3, [r7, #36]	@ 0x24
    NumBytesToWrite = MIN(NumBytesToWrite, NumBytes);
 8000852:	6a7a      	ldr	r2, [r7, #36]	@ 0x24
 8000854:	687b      	ldr	r3, [r7, #4]
 8000856:	4293      	cmp	r3, r2
 8000858:	bf28      	it	cs
 800085a:	4613      	movcs	r3, r2
 800085c:	627b      	str	r3, [r7, #36]	@ 0x24
    pDst = (pRing->pBuffer + WrOff) + SEGGER_RTT_UNCACHED_OFF;
 800085e:	68fb      	ldr	r3, [r7, #12]
 8000860:	685a      	ldr	r2, [r3, #4]
 8000862:	69fb      	ldr	r3, [r7, #28]
 8000864:	4413      	add	r3, r2
 8000866:	617b      	str	r3, [r7, #20]
    WrOff           += NumBytesToWrite;
    while (NumBytesToWrite--) {
      *pDst++ = *pBuffer++;
    };
#else
    SEGGER_RTT_MEMCPY((void*)pDst, pBuffer, NumBytesToWrite);
 8000868:	6a7a      	ldr	r2, [r7, #36]	@ 0x24
 800086a:	68b9      	ldr	r1, [r7, #8]
 800086c:	6978      	ldr	r0, [r7, #20]
 800086e:	f003 fa86 	bl	8003d7e <memcpy>
    NumBytesWritten += NumBytesToWrite;
 8000872:	6a3a      	ldr	r2, [r7, #32]
 8000874:	6a7b      	ldr	r3, [r7, #36]	@ 0x24
 8000876:	4413      	add	r3, r2
 8000878:	623b      	str	r3, [r7, #32]
    pBuffer         += NumBytesToWrite;
 800087a:	68ba      	ldr	r2, [r7, #8]
 800087c:	6a7b      	ldr	r3, [r7, #36]	@ 0x24
 800087e:	4413      	add	r3, r2
 8000880:	60bb      	str	r3, [r7, #8]
    NumBytes        -= NumBytesToWrite;
 8000882:	687a      	ldr	r2, [r7, #4]
 8000884:	6a7b      	ldr	r3, [r7, #36]	@ 0x24
 8000886:	1ad3      	subs	r3, r2, r3
 8000888:	607b      	str	r3, [r7, #4]
    WrOff           += NumBytesToWrite;
 800088a:	69fa      	ldr	r2, [r7, #28]
 800088c:	6a7b      	ldr	r3, [r7, #36]	@ 0x24
 800088e:	4413      	add	r3, r2
 8000890:	61fb      	str	r3, [r7, #28]
#endif
    if (WrOff == pRing->SizeOfBuffer) {
 8000892:	68fb      	ldr	r3, [r7, #12]
 8000894:	689b      	ldr	r3, [r3, #8]
 8000896:	69fa      	ldr	r2, [r7, #28]
 8000898:	429a      	cmp	r2, r3
 800089a:	d101      	bne.n	80008a0 <_WriteBlocking+0xa0>
      WrOff = 0u;
 800089c:	2300      	movs	r3, #0
 800089e:	61fb      	str	r3, [r7, #28]
    }
    RTT__DMB();                     // Force data write to be complete before writing the <WrOff>, in case CPU is allowed to change the order of memory accesses
 80008a0:	f3bf 8f5f 	dmb	sy
    pRing->WrOff = WrOff;
 80008a4:	68fb      	ldr	r3, [r7, #12]
 80008a6:	69fa      	ldr	r2, [r7, #28]
 80008a8:	60da      	str	r2, [r3, #12]
  } while (NumBytes);
 80008aa:	687b      	ldr	r3, [r7, #4]
 80008ac:	2b00      	cmp	r3, #0
 80008ae:	d1b2      	bne.n	8000816 <_WriteBlocking+0x16>
  return NumBytesWritten;
 80008b0:	6a3b      	ldr	r3, [r7, #32]
}
 80008b2:	4618      	mov	r0, r3
 80008b4:	3728      	adds	r7, #40	@ 0x28
 80008b6:	46bd      	mov	sp, r7
 80008b8:	bd80      	pop	{r7, pc}

080008ba <_WriteNoCheck>:
*    NumBytes     Number of bytes to be stored in the SEGGER RTT control block.
*
*  Notes
*    (1) If there might not be enough space in the "Up"-buffer, call _WriteBlocking
*/
static void _WriteNoCheck(SEGGER_RTT_BUFFER_UP* pRing, const char* pData, unsigned NumBytes) {
 80008ba:	b580      	push	{r7, lr}
 80008bc:	b088      	sub	sp, #32
 80008be:	af00      	add	r7, sp, #0
 80008c0:	60f8      	str	r0, [r7, #12]
 80008c2:	60b9      	str	r1, [r7, #8]
 80008c4:	607a      	str	r2, [r7, #4]
  unsigned NumBytesAtOnce;
  unsigned WrOff;
  unsigned Rem;
  volatile char* pDst;

  WrOff = pRing->WrOff;
 80008c6:	68fb      	ldr	r3, [r7, #12]
 80008c8:	68db      	ldr	r3, [r3, #12]
 80008ca:	61fb      	str	r3, [r7, #28]
  Rem = pRing->SizeOfBuffer - WrOff;
 80008cc:	68fb      	ldr	r3, [r7, #12]
 80008ce:	689a      	ldr	r2, [r3, #8]
 80008d0:	69fb      	ldr	r3, [r7, #28]
 80008d2:	1ad3      	subs	r3, r2, r3
 80008d4:	61bb      	str	r3, [r7, #24]
  if (Rem > NumBytes) {
 80008d6:	69ba      	ldr	r2, [r7, #24]
 80008d8:	687b      	ldr	r3, [r7, #4]
 80008da:	429a      	cmp	r2, r3
 80008dc:	d911      	bls.n	8000902 <_WriteNoCheck+0x48>
    //
    // All data fits before wrap around
    //
    pDst = (pRing->pBuffer + WrOff) + SEGGER_RTT_UNCACHED_OFF;
 80008de:	68fb      	ldr	r3, [r7, #12]
 80008e0:	685a      	ldr	r2, [r3, #4]
 80008e2:	69fb      	ldr	r3, [r7, #28]
 80008e4:	4413      	add	r3, r2
 80008e6:	613b      	str	r3, [r7, #16]
      *pDst++ = *pData++;
    };
    RTT__DMB();                     // Force data write to be complete before writing the <WrOff>, in case CPU is allowed to change the order of memory accesses
    pRing->WrOff = WrOff;
#else
    SEGGER_RTT_MEMCPY((void*)pDst, pData, NumBytes);
 80008e8:	687a      	ldr	r2, [r7, #4]
 80008ea:	68b9      	ldr	r1, [r7, #8]
 80008ec:	6938      	ldr	r0, [r7, #16]
 80008ee:	f003 fa46 	bl	8003d7e <memcpy>
    RTT__DMB();                     // Force data write to be complete before writing the <WrOff>, in case CPU is allowed to change the order of memory accesses
 80008f2:	f3bf 8f5f 	dmb	sy
    pRing->WrOff = WrOff + NumBytes;
 80008f6:	69fa      	ldr	r2, [r7, #28]
 80008f8:	687b      	ldr	r3, [r7, #4]
 80008fa:	441a      	add	r2, r3
 80008fc:	68fb      	ldr	r3, [r7, #12]
 80008fe:	60da      	str	r2, [r3, #12]
    SEGGER_RTT_MEMCPY((void*)pDst, pData + Rem, NumBytesAtOnce);
    RTT__DMB();                     // Force data write to be complete before writing the <WrOff>, in case CPU is allowed to change the order of memory accesses
    pRing->WrOff = NumBytesAtOnce;
#endif
  }
}
 8000900:	e01f      	b.n	8000942 <_WriteNoCheck+0x88>
    NumBytesAtOnce = Rem;
 8000902:	69bb      	ldr	r3, [r7, #24]
 8000904:	617b      	str	r3, [r7, #20]
    pDst = (pRing->pBuffer + WrOff) + SEGGER_RTT_UNCACHED_OFF;
 8000906:	68fb      	ldr	r3, [r7, #12]
 8000908:	685a      	ldr	r2, [r3, #4]
 800090a:	69fb      	ldr	r3, [r7, #28]
 800090c:	4413      	add	r3, r2
 800090e:	613b      	str	r3, [r7, #16]
    SEGGER_RTT_MEMCPY((void*)pDst, pData, NumBytesAtOnce);
 8000910:	697a      	ldr	r2, [r7, #20]
 8000912:	68b9      	ldr	r1, [r7, #8]
 8000914:	6938      	ldr	r0, [r7, #16]
 8000916:	f003 fa32 	bl	8003d7e <memcpy>
    NumBytesAtOnce = NumBytes - Rem;
 800091a:	687a      	ldr	r2, [r7, #4]
 800091c:	69bb      	ldr	r3, [r7, #24]
 800091e:	1ad3      	subs	r3, r2, r3
 8000920:	617b      	str	r3, [r7, #20]
    pDst = pRing->pBuffer + SEGGER_RTT_UNCACHED_OFF;
 8000922:	68fb      	ldr	r3, [r7, #12]
 8000924:	685b      	ldr	r3, [r3, #4]
 8000926:	613b      	str	r3, [r7, #16]
    SEGGER_RTT_MEMCPY((void*)pDst, pData + Rem, NumBytesAtOnce);
 8000928:	68ba      	ldr	r2, [r7, #8]
 800092a:	69bb      	ldr	r3, [r7, #24]
 800092c:	4413      	add	r3, r2
 800092e:	697a      	ldr	r2, [r7, #20]
 8000930:	4619      	mov	r1, r3
 8000932:	6938      	ldr	r0, [r7, #16]
 8000934:	f003 fa23 	bl	8003d7e <memcpy>
    RTT__DMB();                     // Force data write to be complete before writing the <WrOff>, in case CPU is allowed to change the order of memory accesses
 8000938:	f3bf 8f5f 	dmb	sy
    pRing->WrOff = NumBytesAtOnce;
 800093c:	68fb      	ldr	r3, [r7, #12]
 800093e:	697a      	ldr	r2, [r7, #20]
 8000940:	60da      	str	r2, [r3, #12]
}
 8000942:	bf00      	nop
 8000944:	3720      	adds	r7, #32
 8000946:	46bd      	mov	sp, r7
 8000948:	bd80      	pop	{r7, pc}

0800094a <_GetAvailWriteSpace>:
*    pRing        Ring buffer to check.
*
*  Return value
*    Number of bytes that are free in the buffer.
*/
static unsigned _GetAvailWriteSpace(SEGGER_RTT_BUFFER_UP* pRing) {
 800094a:	b480      	push	{r7}
 800094c:	b087      	sub	sp, #28
 800094e:	af00      	add	r7, sp, #0
 8000950:	6078      	str	r0, [r7, #4]
  unsigned r;
  //
  // Avoid warnings regarding volatile access order.  It's not a problem
  // in this case, but dampen compiler enthusiasm.
  //
  RdOff = pRing->RdOff;
 8000952:	687b      	ldr	r3, [r7, #4]
 8000954:	691b      	ldr	r3, [r3, #16]
 8000956:	613b      	str	r3, [r7, #16]
  WrOff = pRing->WrOff;
 8000958:	687b      	ldr	r3, [r7, #4]
 800095a:	68db      	ldr	r3, [r3, #12]
 800095c:	60fb      	str	r3, [r7, #12]
  if (RdOff <= WrOff) {
 800095e:	693a      	ldr	r2, [r7, #16]
 8000960:	68fb      	ldr	r3, [r7, #12]
 8000962:	429a      	cmp	r2, r3
 8000964:	d808      	bhi.n	8000978 <_GetAvailWriteSpace+0x2e>
    r = pRing->SizeOfBuffer - 1u - WrOff + RdOff;
 8000966:	687b      	ldr	r3, [r7, #4]
 8000968:	689a      	ldr	r2, [r3, #8]
 800096a:	68fb      	ldr	r3, [r7, #12]
 800096c:	1ad2      	subs	r2, r2, r3
 800096e:	693b      	ldr	r3, [r7, #16]
 8000970:	4413      	add	r3, r2
 8000972:	3b01      	subs	r3, #1
 8000974:	617b      	str	r3, [r7, #20]
 8000976:	e004      	b.n	8000982 <_GetAvailWriteSpace+0x38>
  } else {
    r = RdOff - WrOff - 1u;
 8000978:	693a      	ldr	r2, [r7, #16]
 800097a:	68fb      	ldr	r3, [r7, #12]
 800097c:	1ad3      	subs	r3, r2, r3
 800097e:	3b01      	subs	r3, #1
 8000980:	617b      	str	r3, [r7, #20]
  }
  return r;
 8000982:	697b      	ldr	r3, [r7, #20]
}
 8000984:	4618      	mov	r0, r3
 8000986:	371c      	adds	r7, #28
 8000988:	46bd      	mov	sp, r7
 800098a:	f85d 7b04 	ldr.w	r7, [sp], #4
 800098e:	4770      	bx	lr

08000990 <SEGGER_RTT_ReadNoLock>:
*    BufferSize   Size of the target application buffer.
*
*  Return value
*    Number of bytes that have been read.
*/
unsigned SEGGER_RTT_ReadNoLock(unsigned BufferIndex, void* pData, unsigned BufferSize) {
 8000990:	b580      	push	{r7, lr}
 8000992:	b08c      	sub	sp, #48	@ 0x30
 8000994:	af00      	add	r7, sp, #0
 8000996:	60f8      	str	r0, [r7, #12]
 8000998:	60b9      	str	r1, [r7, #8]
 800099a:	607a      	str	r2, [r7, #4]
  unsigned                WrOff;
  unsigned char*          pBuffer;
  SEGGER_RTT_BUFFER_DOWN* pRing;
  volatile char*          pSrc;
  //
  INIT();
 800099c:	4b3e      	ldr	r3, [pc, #248]	@ (8000a98 <SEGGER_RTT_ReadNoLock+0x108>)
 800099e:	623b      	str	r3, [r7, #32]
 80009a0:	6a3b      	ldr	r3, [r7, #32]
 80009a2:	781b      	ldrb	r3, [r3, #0]
 80009a4:	b2db      	uxtb	r3, r3
 80009a6:	2b53      	cmp	r3, #83	@ 0x53
 80009a8:	d001      	beq.n	80009ae <SEGGER_RTT_ReadNoLock+0x1e>
 80009aa:	f7ff fecf 	bl	800074c <_DoInit>
  pRing = (SEGGER_RTT_BUFFER_DOWN*)((uintptr_t)&_SEGGER_RTT.aDown[BufferIndex] + SEGGER_RTT_UNCACHED_OFF);  // Access uncached to make sure we see changes made by the J-Link side and all of our changes go into HW directly
 80009ae:	68fa      	ldr	r2, [r7, #12]
 80009b0:	4613      	mov	r3, r2
 80009b2:	005b      	lsls	r3, r3, #1
 80009b4:	4413      	add	r3, r2
 80009b6:	00db      	lsls	r3, r3, #3
 80009b8:	3360      	adds	r3, #96	@ 0x60
 80009ba:	4a37      	ldr	r2, [pc, #220]	@ (8000a98 <SEGGER_RTT_ReadNoLock+0x108>)
 80009bc:	4413      	add	r3, r2
 80009be:	61fb      	str	r3, [r7, #28]
  pBuffer = (unsigned char*)pData;
 80009c0:	68bb      	ldr	r3, [r7, #8]
 80009c2:	627b      	str	r3, [r7, #36]	@ 0x24
  RdOff = pRing->RdOff;
 80009c4:	69fb      	ldr	r3, [r7, #28]
 80009c6:	691b      	ldr	r3, [r3, #16]
 80009c8:	62bb      	str	r3, [r7, #40]	@ 0x28
  WrOff = pRing->WrOff;
 80009ca:	69fb      	ldr	r3, [r7, #28]
 80009cc:	68db      	ldr	r3, [r3, #12]
 80009ce:	61bb      	str	r3, [r7, #24]
  NumBytesRead = 0u;
 80009d0:	2300      	movs	r3, #0
 80009d2:	62fb      	str	r3, [r7, #44]	@ 0x2c
  //
  // Read from current read position to wrap-around of buffer, first
  //
  if (RdOff > WrOff) {
 80009d4:	6aba      	ldr	r2, [r7, #40]	@ 0x28
 80009d6:	69bb      	ldr	r3, [r7, #24]
 80009d8:	429a      	cmp	r2, r3
 80009da:	d92b      	bls.n	8000a34 <SEGGER_RTT_ReadNoLock+0xa4>
    NumBytesRem = pRing->SizeOfBuffer - RdOff;
 80009dc:	69fb      	ldr	r3, [r7, #28]
 80009de:	689a      	ldr	r2, [r3, #8]
 80009e0:	6abb      	ldr	r3, [r7, #40]	@ 0x28
 80009e2:	1ad3      	subs	r3, r2, r3
 80009e4:	617b      	str	r3, [r7, #20]
    NumBytesRem = MIN(NumBytesRem, BufferSize);
 80009e6:	697a      	ldr	r2, [r7, #20]
 80009e8:	687b      	ldr	r3, [r7, #4]
 80009ea:	4293      	cmp	r3, r2
 80009ec:	bf28      	it	cs
 80009ee:	4613      	movcs	r3, r2
 80009f0:	617b      	str	r3, [r7, #20]
    pSrc = (pRing->pBuffer + RdOff) + SEGGER_RTT_UNCACHED_OFF;
 80009f2:	69fb      	ldr	r3, [r7, #28]
 80009f4:	685a      	ldr	r2, [r3, #4]
 80009f6:	6abb      	ldr	r3, [r7, #40]	@ 0x28
 80009f8:	4413      	add	r3, r2
 80009fa:	613b      	str	r3, [r7, #16]
    RdOff        += NumBytesRem;
    while (NumBytesRem--) {
      *pBuffer++ = *pSrc++;
    };
#else
    SEGGER_RTT_MEMCPY(pBuffer, (void*)pSrc, NumBytesRem);
 80009fc:	697a      	ldr	r2, [r7, #20]
 80009fe:	6939      	ldr	r1, [r7, #16]
 8000a00:	6a78      	ldr	r0, [r7, #36]	@ 0x24
 8000a02:	f003 f9bc 	bl	8003d7e <memcpy>
    NumBytesRead += NumBytesRem;
 8000a06:	6afa      	ldr	r2, [r7, #44]	@ 0x2c
 8000a08:	697b      	ldr	r3, [r7, #20]
 8000a0a:	4413      	add	r3, r2
 8000a0c:	62fb      	str	r3, [r7, #44]	@ 0x2c
    pBuffer      += NumBytesRem;
 8000a0e:	6a7a      	ldr	r2, [r7, #36]	@ 0x24
 8000a10:	697b      	ldr	r3, [r7, #20]
 8000a12:	4413      	add	r3, r2
 8000a14:	627b      	str	r3, [r7, #36]	@ 0x24
    BufferSize   -= NumBytesRem;
 8000a16:	687a      	ldr	r2, [r7, #4]
 8000a18:	697b      	ldr	r3, [r7, #20]
 8000a1a:	1ad3      	subs	r3, r2, r3
 8000a1c:	607b      	str	r3, [r7, #4]
    RdOff        += NumBytesRem;
 8000a1e:	6aba      	ldr	r2, [r7, #40]	@ 0x28
 8000a20:	697b      	ldr	r3, [r7, #20]
 8000a22:	4413      	add	r3, r2
 8000a24:	62bb      	str	r3, [r7, #40]	@ 0x28
#endif
    //
    // Handle wrap-around of buffer
    //
    if (RdOff == pRing->SizeOfBuffer) {
 8000a26:	69fb      	ldr	r3, [r7, #28]
 8000a28:	689b      	ldr	r3, [r3, #8]
 8000a2a:	6aba      	ldr	r2, [r7, #40]	@ 0x28
 8000a2c:	429a      	cmp	r2, r3
 8000a2e:	d101      	bne.n	8000a34 <SEGGER_RTT_ReadNoLock+0xa4>
      RdOff = 0u;
 8000a30:	2300      	movs	r3, #0
 8000a32:	62bb      	str	r3, [r7, #40]	@ 0x28
    }
  }
  //
  // Read remaining items of buffer
  //
  NumBytesRem = WrOff - RdOff;
 8000a34:	69ba      	ldr	r2, [r7, #24]
 8000a36:	6abb      	ldr	r3, [r7, #40]	@ 0x28
 8000a38:	1ad3      	subs	r3, r2, r3
 8000a3a:	617b      	str	r3, [r7, #20]
  NumBytesRem = MIN(NumBytesRem, BufferSize);
 8000a3c:	697a      	ldr	r2, [r7, #20]
 8000a3e:	687b      	ldr	r3, [r7, #4]
 8000a40:	4293      	cmp	r3, r2
 8000a42:	bf28      	it	cs
 8000a44:	4613      	movcs	r3, r2
 8000a46:	617b      	str	r3, [r7, #20]
  if (NumBytesRem > 0u) {
 8000a48:	697b      	ldr	r3, [r7, #20]
 8000a4a:	2b00      	cmp	r3, #0
 8000a4c:	d019      	beq.n	8000a82 <SEGGER_RTT_ReadNoLock+0xf2>
    pSrc = (pRing->pBuffer + RdOff) + SEGGER_RTT_UNCACHED_OFF;
 8000a4e:	69fb      	ldr	r3, [r7, #28]
 8000a50:	685a      	ldr	r2, [r3, #4]
 8000a52:	6abb      	ldr	r3, [r7, #40]	@ 0x28
 8000a54:	4413      	add	r3, r2
 8000a56:	613b      	str	r3, [r7, #16]
    RdOff        += NumBytesRem;
    while (NumBytesRem--) {
      *pBuffer++ = *pSrc++;
    };
#else
    SEGGER_RTT_MEMCPY(pBuffer, (void*)pSrc, NumBytesRem);
 8000a58:	697a      	ldr	r2, [r7, #20]
 8000a5a:	6939      	ldr	r1, [r7, #16]
 8000a5c:	6a78      	ldr	r0, [r7, #36]	@ 0x24
 8000a5e:	f003 f98e 	bl	8003d7e <memcpy>
    NumBytesRead += NumBytesRem;
 8000a62:	6afa      	ldr	r2, [r7, #44]	@ 0x2c
 8000a64:	697b      	ldr	r3, [r7, #20]
 8000a66:	4413      	add	r3, r2
 8000a68:	62fb      	str	r3, [r7, #44]	@ 0x2c
    pBuffer      += NumBytesRem;
 8000a6a:	6a7a      	ldr	r2, [r7, #36]	@ 0x24
 8000a6c:	697b      	ldr	r3, [r7, #20]
 8000a6e:	4413      	add	r3, r2
 8000a70:	627b      	str	r3, [r7, #36]	@ 0x24
    BufferSize   -= NumBytesRem;
 8000a72:	687a      	ldr	r2, [r7, #4]
 8000a74:	697b      	ldr	r3, [r7, #20]
 8000a76:	1ad3      	subs	r3, r2, r3
 8000a78:	607b      	str	r3, [r7, #4]
    RdOff        += NumBytesRem;
 8000a7a:	6aba      	ldr	r2, [r7, #40]	@ 0x28
 8000a7c:	697b      	ldr	r3, [r7, #20]
 8000a7e:	4413      	add	r3, r2
 8000a80:	62bb      	str	r3, [r7, #40]	@ 0x28
#endif
  }
  if (NumBytesRead) {
 8000a82:	6afb      	ldr	r3, [r7, #44]	@ 0x2c
 8000a84:	2b00      	cmp	r3, #0
 8000a86:	d002      	beq.n	8000a8e <SEGGER_RTT_ReadNoLock+0xfe>
    pRing->RdOff = RdOff;
 8000a88:	69fb      	ldr	r3, [r7, #28]
 8000a8a:	6aba      	ldr	r2, [r7, #40]	@ 0x28
 8000a8c:	611a      	str	r2, [r3, #16]
  }
  //
  return NumBytesRead;
 8000a8e:	6afb      	ldr	r3, [r7, #44]	@ 0x2c
}
 8000a90:	4618      	mov	r0, r3
 8000a92:	3730      	adds	r7, #48	@ 0x30
 8000a94:	46bd      	mov	sp, r7
 8000a96:	bd80      	pop	{r7, pc}
 8000a98:	20000130 	.word	0x20000130

08000a9c <SEGGER_RTT_WriteNoLock>:
*    (1) Data is stored according to buffer flags.
*    (2) For performance reasons this function does not call Init()
*        and may only be called after RTT has been initialized.
*        Either by calling SEGGER_RTT_Init() or calling another RTT API function first.
*/
unsigned SEGGER_RTT_WriteNoLock(unsigned BufferIndex, const void* pBuffer, unsigned NumBytes) {
 8000a9c:	b580      	push	{r7, lr}
 8000a9e:	b088      	sub	sp, #32
 8000aa0:	af00      	add	r7, sp, #0
 8000aa2:	60f8      	str	r0, [r7, #12]
 8000aa4:	60b9      	str	r1, [r7, #8]
 8000aa6:	607a      	str	r2, [r7, #4]
  const char*           pData;
  SEGGER_RTT_BUFFER_UP* pRing;
  //
  // Get "to-host" ring buffer.
  //
  pData = (const char *)pBuffer;
 8000aa8:	68bb      	ldr	r3, [r7, #8]
 8000aaa:	61bb      	str	r3, [r7, #24]
  pRing = (SEGGER_RTT_BUFFER_UP*)((uintptr_t)&_SEGGER_RTT.aUp[BufferIndex] + SEGGER_RTT_UNCACHED_OFF);  // Access uncached to make sure we see changes made by the J-Link side and all of our changes go into HW directly
 8000aac:	68fb      	ldr	r3, [r7, #12]
 8000aae:	1c5a      	adds	r2, r3, #1
 8000ab0:	4613      	mov	r3, r2
 8000ab2:	005b      	lsls	r3, r3, #1
 8000ab4:	4413      	add	r3, r2
 8000ab6:	00db      	lsls	r3, r3, #3
 8000ab8:	4a1f      	ldr	r2, [pc, #124]	@ (8000b38 <SEGGER_RTT_WriteNoLock+0x9c>)
 8000aba:	4413      	add	r3, r2
 8000abc:	617b      	str	r3, [r7, #20]
  //
  // How we output depends upon the mode...
  //
  switch (pRing->Flags) {
 8000abe:	697b      	ldr	r3, [r7, #20]
 8000ac0:	695b      	ldr	r3, [r3, #20]
 8000ac2:	2b02      	cmp	r3, #2
 8000ac4:	d029      	beq.n	8000b1a <SEGGER_RTT_WriteNoLock+0x7e>
 8000ac6:	2b02      	cmp	r3, #2
 8000ac8:	d82e      	bhi.n	8000b28 <SEGGER_RTT_WriteNoLock+0x8c>
 8000aca:	2b00      	cmp	r3, #0
 8000acc:	d002      	beq.n	8000ad4 <SEGGER_RTT_WriteNoLock+0x38>
 8000ace:	2b01      	cmp	r3, #1
 8000ad0:	d013      	beq.n	8000afa <SEGGER_RTT_WriteNoLock+0x5e>
 8000ad2:	e029      	b.n	8000b28 <SEGGER_RTT_WriteNoLock+0x8c>
  case SEGGER_RTT_MODE_NO_BLOCK_SKIP:
    //
    // If we are in skip mode and there is no space for the whole
    // of this output, don't bother.
    //
    Avail = _GetAvailWriteSpace(pRing);
 8000ad4:	6978      	ldr	r0, [r7, #20]
 8000ad6:	f7ff ff38 	bl	800094a <_GetAvailWriteSpace>
 8000ada:	6138      	str	r0, [r7, #16]
    if (Avail < NumBytes) {
 8000adc:	693a      	ldr	r2, [r7, #16]
 8000ade:	687b      	ldr	r3, [r7, #4]
 8000ae0:	429a      	cmp	r2, r3
 8000ae2:	d202      	bcs.n	8000aea <SEGGER_RTT_WriteNoLock+0x4e>
      Status = 0u;
 8000ae4:	2300      	movs	r3, #0
 8000ae6:	61fb      	str	r3, [r7, #28]
    } else {
      Status = NumBytes;
      _WriteNoCheck(pRing, pData, NumBytes);
    }
    break;
 8000ae8:	e021      	b.n	8000b2e <SEGGER_RTT_WriteNoLock+0x92>
      Status = NumBytes;
 8000aea:	687b      	ldr	r3, [r7, #4]
 8000aec:	61fb      	str	r3, [r7, #28]
      _WriteNoCheck(pRing, pData, NumBytes);
 8000aee:	687a      	ldr	r2, [r7, #4]
 8000af0:	69b9      	ldr	r1, [r7, #24]
 8000af2:	6978      	ldr	r0, [r7, #20]
 8000af4:	f7ff fee1 	bl	80008ba <_WriteNoCheck>
    break;
 8000af8:	e019      	b.n	8000b2e <SEGGER_RTT_WriteNoLock+0x92>
  case SEGGER_RTT_MODE_NO_BLOCK_TRIM:
    //
    // If we are in trim mode, trim to what we can output without blocking.
    //
    Avail = _GetAvailWriteSpace(pRing);
 8000afa:	6978      	ldr	r0, [r7, #20]
 8000afc:	f7ff ff25 	bl	800094a <_GetAvailWriteSpace>
 8000b00:	6138      	str	r0, [r7, #16]
    Status = Avail < NumBytes ? Avail : NumBytes;
 8000b02:	687a      	ldr	r2, [r7, #4]
 8000b04:	693b      	ldr	r3, [r7, #16]
 8000b06:	4293      	cmp	r3, r2
 8000b08:	bf28      	it	cs
 8000b0a:	4613      	movcs	r3, r2
 8000b0c:	61fb      	str	r3, [r7, #28]
    _WriteNoCheck(pRing, pData, Status);
 8000b0e:	69fa      	ldr	r2, [r7, #28]
 8000b10:	69b9      	ldr	r1, [r7, #24]
 8000b12:	6978      	ldr	r0, [r7, #20]
 8000b14:	f7ff fed1 	bl	80008ba <_WriteNoCheck>
    break;
 8000b18:	e009      	b.n	8000b2e <SEGGER_RTT_WriteNoLock+0x92>
  case SEGGER_RTT_MODE_BLOCK_IF_FIFO_FULL:
    //
    // If we are in blocking mode, output everything.
    //
    Status = _WriteBlocking(pRing, pData, NumBytes);
 8000b1a:	687a      	ldr	r2, [r7, #4]
 8000b1c:	69b9      	ldr	r1, [r7, #24]
 8000b1e:	6978      	ldr	r0, [r7, #20]
 8000b20:	f7ff fe6e 	bl	8000800 <_WriteBlocking>
 8000b24:	61f8      	str	r0, [r7, #28]
    break;
 8000b26:	e002      	b.n	8000b2e <SEGGER_RTT_WriteNoLock+0x92>
  default:
    Status = 0u;
 8000b28:	2300      	movs	r3, #0
 8000b2a:	61fb      	str	r3, [r7, #28]
    break;
 8000b2c:	bf00      	nop
  }
  //
  // Finish up.
  //
  return Status;
 8000b2e:	69fb      	ldr	r3, [r7, #28]
}
 8000b30:	4618      	mov	r0, r3
 8000b32:	3720      	adds	r7, #32
 8000b34:	46bd      	mov	sp, r7
 8000b36:	bd80      	pop	{r7, pc}
 8000b38:	20000130 	.word	0x20000130

08000b3c <SEGGER_RTT_Write>:
*    Number of bytes which have been stored in the "Up"-buffer.
*
*  Notes
*    (1) Data is stored according to buffer flags.
*/
unsigned SEGGER_RTT_Write(unsigned BufferIndex, const void* pBuffer, unsigned NumBytes) {
 8000b3c:	b580      	push	{r7, lr}
 8000b3e:	b088      	sub	sp, #32
 8000b40:	af00      	add	r7, sp, #0
 8000b42:	60f8      	str	r0, [r7, #12]
 8000b44:	60b9      	str	r1, [r7, #8]
 8000b46:	607a      	str	r2, [r7, #4]
  unsigned Status;

  INIT();
 8000b48:	4b0e      	ldr	r3, [pc, #56]	@ (8000b84 <SEGGER_RTT_Write+0x48>)
 8000b4a:	61fb      	str	r3, [r7, #28]
 8000b4c:	69fb      	ldr	r3, [r7, #28]
 8000b4e:	781b      	ldrb	r3, [r3, #0]
 8000b50:	b2db      	uxtb	r3, r3
 8000b52:	2b53      	cmp	r3, #83	@ 0x53
 8000b54:	d001      	beq.n	8000b5a <SEGGER_RTT_Write+0x1e>
 8000b56:	f7ff fdf9 	bl	800074c <_DoInit>
  SEGGER_RTT_LOCK();
 8000b5a:	f3ef 8311 	mrs	r3, BASEPRI
 8000b5e:	f04f 0120 	mov.w	r1, #32
 8000b62:	f381 8811 	msr	BASEPRI, r1
 8000b66:	61bb      	str	r3, [r7, #24]
  Status = SEGGER_RTT_WriteNoLock(BufferIndex, pBuffer, NumBytes);  // Call the non-locking write function
 8000b68:	687a      	ldr	r2, [r7, #4]
 8000b6a:	68b9      	ldr	r1, [r7, #8]
 8000b6c:	68f8      	ldr	r0, [r7, #12]
 8000b6e:	f7ff ff95 	bl	8000a9c <SEGGER_RTT_WriteNoLock>
 8000b72:	6178      	str	r0, [r7, #20]
  SEGGER_RTT_UNLOCK();
 8000b74:	69bb      	ldr	r3, [r7, #24]
 8000b76:	f383 8811 	msr	BASEPRI, r3
  return Status;
 8000b7a:	697b      	ldr	r3, [r7, #20]
}
 8000b7c:	4618      	mov	r0, r3
 8000b7e:	3720      	adds	r7, #32
 8000b80:	46bd      	mov	sp, r7
 8000b82:	bd80      	pop	{r7, pc}
 8000b84:	20000130 	.word	0x20000130

08000b88 <SEGGER_RTT_AllocUpBuffer>:
*
*  Return value
*    >= 0 - O.K. Buffer Index
*     < 0 - Error
*/
int SEGGER_RTT_AllocUpBuffer(const char* sName, void* pBuffer, unsigned BufferSize, unsigned Flags) {
 8000b88:	b580      	push	{r7, lr}
 8000b8a:	b088      	sub	sp, #32
 8000b8c:	af00      	add	r7, sp, #0
 8000b8e:	60f8      	str	r0, [r7, #12]
 8000b90:	60b9      	str	r1, [r7, #8]
 8000b92:	607a      	str	r2, [r7, #4]
 8000b94:	603b      	str	r3, [r7, #0]
  int BufferIndex;
  volatile SEGGER_RTT_CB* pRTTCB;

  INIT();
 8000b96:	4b3d      	ldr	r3, [pc, #244]	@ (8000c8c <SEGGER_RTT_AllocUpBuffer+0x104>)
 8000b98:	61bb      	str	r3, [r7, #24]
 8000b9a:	69bb      	ldr	r3, [r7, #24]
 8000b9c:	781b      	ldrb	r3, [r3, #0]
 8000b9e:	b2db      	uxtb	r3, r3
 8000ba0:	2b53      	cmp	r3, #83	@ 0x53
 8000ba2:	d001      	beq.n	8000ba8 <SEGGER_RTT_AllocUpBuffer+0x20>
 8000ba4:	f7ff fdd2 	bl	800074c <_DoInit>
  SEGGER_RTT_LOCK();
 8000ba8:	f3ef 8311 	mrs	r3, BASEPRI
 8000bac:	f04f 0120 	mov.w	r1, #32
 8000bb0:	f381 8811 	msr	BASEPRI, r1
 8000bb4:	617b      	str	r3, [r7, #20]
  pRTTCB = (volatile SEGGER_RTT_CB*)((uintptr_t)&_SEGGER_RTT + SEGGER_RTT_UNCACHED_OFF);  // Access RTTCB uncached to make sure we see changes made by the J-Link side and all of our changes go into HW directly
 8000bb6:	4b35      	ldr	r3, [pc, #212]	@ (8000c8c <SEGGER_RTT_AllocUpBuffer+0x104>)
 8000bb8:	613b      	str	r3, [r7, #16]
  BufferIndex = 0;
 8000bba:	2300      	movs	r3, #0
 8000bbc:	61fb      	str	r3, [r7, #28]
  do {
    if (pRTTCB->aUp[BufferIndex].pBuffer == NULL) {
 8000bbe:	6939      	ldr	r1, [r7, #16]
 8000bc0:	69fb      	ldr	r3, [r7, #28]
 8000bc2:	1c5a      	adds	r2, r3, #1
 8000bc4:	4613      	mov	r3, r2
 8000bc6:	005b      	lsls	r3, r3, #1
 8000bc8:	4413      	add	r3, r2
 8000bca:	00db      	lsls	r3, r3, #3
 8000bcc:	440b      	add	r3, r1
 8000bce:	3304      	adds	r3, #4
 8000bd0:	681b      	ldr	r3, [r3, #0]
 8000bd2:	2b00      	cmp	r3, #0
 8000bd4:	d008      	beq.n	8000be8 <SEGGER_RTT_AllocUpBuffer+0x60>
      break;
    }
    BufferIndex++;
 8000bd6:	69fb      	ldr	r3, [r7, #28]
 8000bd8:	3301      	adds	r3, #1
 8000bda:	61fb      	str	r3, [r7, #28]
  } while (BufferIndex < pRTTCB->MaxNumUpBuffers);
 8000bdc:	693b      	ldr	r3, [r7, #16]
 8000bde:	691b      	ldr	r3, [r3, #16]
 8000be0:	69fa      	ldr	r2, [r7, #28]
 8000be2:	429a      	cmp	r2, r3
 8000be4:	dbeb      	blt.n	8000bbe <SEGGER_RTT_AllocUpBuffer+0x36>
 8000be6:	e000      	b.n	8000bea <SEGGER_RTT_AllocUpBuffer+0x62>
      break;
 8000be8:	bf00      	nop
  if (BufferIndex < pRTTCB->MaxNumUpBuffers) {
 8000bea:	693b      	ldr	r3, [r7, #16]
 8000bec:	691b      	ldr	r3, [r3, #16]
 8000bee:	69fa      	ldr	r2, [r7, #28]
 8000bf0:	429a      	cmp	r2, r3
 8000bf2:	da3f      	bge.n	8000c74 <SEGGER_RTT_AllocUpBuffer+0xec>
    pRTTCB->aUp[BufferIndex].sName        = sName;
 8000bf4:	6939      	ldr	r1, [r7, #16]
 8000bf6:	69fb      	ldr	r3, [r7, #28]
 8000bf8:	1c5a      	adds	r2, r3, #1
 8000bfa:	4613      	mov	r3, r2
 8000bfc:	005b      	lsls	r3, r3, #1
 8000bfe:	4413      	add	r3, r2
 8000c00:	00db      	lsls	r3, r3, #3
 8000c02:	440b      	add	r3, r1
 8000c04:	68fa      	ldr	r2, [r7, #12]
 8000c06:	601a      	str	r2, [r3, #0]
    pRTTCB->aUp[BufferIndex].pBuffer      = (char*)pBuffer;
 8000c08:	6939      	ldr	r1, [r7, #16]
 8000c0a:	69fb      	ldr	r3, [r7, #28]
 8000c0c:	1c5a      	adds	r2, r3, #1
 8000c0e:	4613      	mov	r3, r2
 8000c10:	005b      	lsls	r3, r3, #1
 8000c12:	4413      	add	r3, r2
 8000c14:	00db      	lsls	r3, r3, #3
 8000c16:	440b      	add	r3, r1
 8000c18:	3304      	adds	r3, #4
 8000c1a:	68ba      	ldr	r2, [r7, #8]
 8000c1c:	601a      	str	r2, [r3, #0]
    pRTTCB->aUp[BufferIndex].SizeOfBuffer = BufferSize;
 8000c1e:	6939      	ldr	r1, [r7, #16]
 8000c20:	69fa      	ldr	r2, [r7, #28]
 8000c22:	4613      	mov	r3, r2
 8000c24:	005b      	lsls	r3, r3, #1
 8000c26:	4413      	add	r3, r2
 8000c28:	00db      	lsls	r3, r3, #3
 8000c2a:	440b      	add	r3, r1
 8000c2c:	3320      	adds	r3, #32
 8000c2e:	687a      	ldr	r2, [r7, #4]
 8000c30:	601a      	str	r2, [r3, #0]
    pRTTCB->aUp[BufferIndex].RdOff        = 0u;
 8000c32:	6939      	ldr	r1, [r7, #16]
 8000c34:	69fa      	ldr	r2, [r7, #28]
 8000c36:	4613      	mov	r3, r2
 8000c38:	005b      	lsls	r3, r3, #1
 8000c3a:	4413      	add	r3, r2
 8000c3c:	00db      	lsls	r3, r3, #3
 8000c3e:	440b      	add	r3, r1
 8000c40:	3328      	adds	r3, #40	@ 0x28
 8000c42:	2200      	movs	r2, #0
 8000c44:	601a      	str	r2, [r3, #0]
    pRTTCB->aUp[BufferIndex].WrOff        = 0u;
 8000c46:	6939      	ldr	r1, [r7, #16]
 8000c48:	69fa      	ldr	r2, [r7, #28]
 8000c4a:	4613      	mov	r3, r2
 8000c4c:	005b      	lsls	r3, r3, #1
 8000c4e:	4413      	add	r3, r2
 8000c50:	00db      	lsls	r3, r3, #3
 8000c52:	440b      	add	r3, r1
 8000c54:	3324      	adds	r3, #36	@ 0x24
 8000c56:	2200      	movs	r2, #0
 8000c58:	601a      	str	r2, [r3, #0]
    pRTTCB->aUp[BufferIndex].Flags        = Flags;
 8000c5a:	6939      	ldr	r1, [r7, #16]
 8000c5c:	69fa      	ldr	r2, [r7, #28]
 8000c5e:	4613      	mov	r3, r2
 8000c60:	005b      	lsls	r3, r3, #1
 8000c62:	4413      	add	r3, r2
 8000c64:	00db      	lsls	r3, r3, #3
 8000c66:	440b      	add	r3, r1
 8000c68:	332c      	adds	r3, #44	@ 0x2c
 8000c6a:	683a      	ldr	r2, [r7, #0]
 8000c6c:	601a      	str	r2, [r3, #0]
    RTT__DMB();                     // Force data write to be complete before writing the <WrOff>, in case CPU is allowed to change the order of memory accesses
 8000c6e:	f3bf 8f5f 	dmb	sy
 8000c72:	e002      	b.n	8000c7a <SEGGER_RTT_AllocUpBuffer+0xf2>
  } else {
    BufferIndex = -1;
 8000c74:	f04f 33ff 	mov.w	r3, #4294967295
 8000c78:	61fb      	str	r3, [r7, #28]
  }
  SEGGER_RTT_UNLOCK();
 8000c7a:	697b      	ldr	r3, [r7, #20]
 8000c7c:	f383 8811 	msr	BASEPRI, r3
  return BufferIndex;
 8000c80:	69fb      	ldr	r3, [r7, #28]
}
 8000c82:	4618      	mov	r0, r3
 8000c84:	3720      	adds	r7, #32
 8000c86:	46bd      	mov	sp, r7
 8000c88:	bd80      	pop	{r7, pc}
 8000c8a:	bf00      	nop
 8000c8c:	20000130 	.word	0x20000130

08000c90 <SEGGER_RTT_ConfigDownBuffer>:
*  Additional information
*    Buffer 0 is configured on compile-time.
*    May only be called once per buffer.
*    Buffer name and flags can be reconfigured using the appropriate functions.
*/
int SEGGER_RTT_ConfigDownBuffer(unsigned BufferIndex, const char* sName, void* pBuffer, unsigned BufferSize, unsigned Flags) {
 8000c90:	b580      	push	{r7, lr}
 8000c92:	b08a      	sub	sp, #40	@ 0x28
 8000c94:	af00      	add	r7, sp, #0
 8000c96:	60f8      	str	r0, [r7, #12]
 8000c98:	60b9      	str	r1, [r7, #8]
 8000c9a:	607a      	str	r2, [r7, #4]
 8000c9c:	603b      	str	r3, [r7, #0]
  int r;
  volatile SEGGER_RTT_CB* pRTTCB;
  volatile SEGGER_RTT_BUFFER_DOWN* pDown;

  INIT();
 8000c9e:	4b21      	ldr	r3, [pc, #132]	@ (8000d24 <SEGGER_RTT_ConfigDownBuffer+0x94>)
 8000ca0:	623b      	str	r3, [r7, #32]
 8000ca2:	6a3b      	ldr	r3, [r7, #32]
 8000ca4:	781b      	ldrb	r3, [r3, #0]
 8000ca6:	b2db      	uxtb	r3, r3
 8000ca8:	2b53      	cmp	r3, #83	@ 0x53
 8000caa:	d001      	beq.n	8000cb0 <SEGGER_RTT_ConfigDownBuffer+0x20>
 8000cac:	f7ff fd4e 	bl	800074c <_DoInit>
  pRTTCB = (volatile SEGGER_RTT_CB*)((uintptr_t)&_SEGGER_RTT + SEGGER_RTT_UNCACHED_OFF);  // Access RTTCB uncached to make sure we see changes made by the J-Link side and all of our changes go into HW directly
 8000cb0:	4b1c      	ldr	r3, [pc, #112]	@ (8000d24 <SEGGER_RTT_ConfigDownBuffer+0x94>)
 8000cb2:	61fb      	str	r3, [r7, #28]
  if (BufferIndex < SEGGER_RTT_MAX_NUM_DOWN_BUFFERS) {
 8000cb4:	68fb      	ldr	r3, [r7, #12]
 8000cb6:	2b02      	cmp	r3, #2
 8000cb8:	d82c      	bhi.n	8000d14 <SEGGER_RTT_ConfigDownBuffer+0x84>
    SEGGER_RTT_LOCK();
 8000cba:	f3ef 8311 	mrs	r3, BASEPRI
 8000cbe:	f04f 0120 	mov.w	r1, #32
 8000cc2:	f381 8811 	msr	BASEPRI, r1
 8000cc6:	61bb      	str	r3, [r7, #24]
    pDown = &pRTTCB->aDown[BufferIndex];
 8000cc8:	68fa      	ldr	r2, [r7, #12]
 8000cca:	4613      	mov	r3, r2
 8000ccc:	005b      	lsls	r3, r3, #1
 8000cce:	4413      	add	r3, r2
 8000cd0:	00db      	lsls	r3, r3, #3
 8000cd2:	3360      	adds	r3, #96	@ 0x60
 8000cd4:	69fa      	ldr	r2, [r7, #28]
 8000cd6:	4413      	add	r3, r2
 8000cd8:	617b      	str	r3, [r7, #20]
    if (BufferIndex) {
 8000cda:	68fb      	ldr	r3, [r7, #12]
 8000cdc:	2b00      	cmp	r3, #0
 8000cde:	d00e      	beq.n	8000cfe <SEGGER_RTT_ConfigDownBuffer+0x6e>
      pDown->sName        = sName;
 8000ce0:	697b      	ldr	r3, [r7, #20]
 8000ce2:	68ba      	ldr	r2, [r7, #8]
 8000ce4:	601a      	str	r2, [r3, #0]
      pDown->pBuffer      = (char*)pBuffer;
 8000ce6:	697b      	ldr	r3, [r7, #20]
 8000ce8:	687a      	ldr	r2, [r7, #4]
 8000cea:	605a      	str	r2, [r3, #4]
      pDown->SizeOfBuffer = BufferSize;
 8000cec:	697b      	ldr	r3, [r7, #20]
 8000cee:	683a      	ldr	r2, [r7, #0]
 8000cf0:	609a      	str	r2, [r3, #8]
      pDown->RdOff        = 0u;
 8000cf2:	697b      	ldr	r3, [r7, #20]
 8000cf4:	2200      	movs	r2, #0
 8000cf6:	611a      	str	r2, [r3, #16]
      pDown->WrOff        = 0u;
 8000cf8:	697b      	ldr	r3, [r7, #20]
 8000cfa:	2200      	movs	r2, #0
 8000cfc:	60da      	str	r2, [r3, #12]
    }
    pDown->Flags          = Flags;
 8000cfe:	697b      	ldr	r3, [r7, #20]
 8000d00:	6b3a      	ldr	r2, [r7, #48]	@ 0x30
 8000d02:	615a      	str	r2, [r3, #20]
    RTT__DMB();                     // Force data write to be complete before writing the <WrOff>, in case CPU is allowed to change the order of memory accesses
 8000d04:	f3bf 8f5f 	dmb	sy
    SEGGER_RTT_UNLOCK();
 8000d08:	69bb      	ldr	r3, [r7, #24]
 8000d0a:	f383 8811 	msr	BASEPRI, r3
    r =  0;
 8000d0e:	2300      	movs	r3, #0
 8000d10:	627b      	str	r3, [r7, #36]	@ 0x24
 8000d12:	e002      	b.n	8000d1a <SEGGER_RTT_ConfigDownBuffer+0x8a>
  } else {
    r = -1;
 8000d14:	f04f 33ff 	mov.w	r3, #4294967295
 8000d18:	627b      	str	r3, [r7, #36]	@ 0x24
  }
  return r;
 8000d1a:	6a7b      	ldr	r3, [r7, #36]	@ 0x24
}
 8000d1c:	4618      	mov	r0, r3
 8000d1e:	3728      	adds	r7, #40	@ 0x28
 8000d20:	46bd      	mov	sp, r7
 8000d22:	bd80      	pop	{r7, pc}
 8000d24:	20000130 	.word	0x20000130

08000d28 <_EncodeStr>:
*  Additional information
*    The string is encoded as a count byte followed by the contents
*    of the string.
*    No more than 1 + Limit bytes will be encoded to the payload.
*/
static U8 *_EncodeStr(U8 *pPayload, const char *pText, unsigned int Limit) {
 8000d28:	b480      	push	{r7}
 8000d2a:	b087      	sub	sp, #28
 8000d2c:	af00      	add	r7, sp, #0
 8000d2e:	60f8      	str	r0, [r7, #12]
 8000d30:	60b9      	str	r1, [r7, #8]
 8000d32:	607a      	str	r2, [r7, #4]
  U8* pLen;
  const char* sStart;

  if (pText == NULL) {
 8000d34:	68bb      	ldr	r3, [r7, #8]
 8000d36:	2b00      	cmp	r3, #0
 8000d38:	d105      	bne.n	8000d46 <_EncodeStr+0x1e>
    *pPayload++ = (U8)0;
 8000d3a:	68fb      	ldr	r3, [r7, #12]
 8000d3c:	1c5a      	adds	r2, r3, #1
 8000d3e:	60fa      	str	r2, [r7, #12]
 8000d40:	2200      	movs	r2, #0
 8000d42:	701a      	strb	r2, [r3, #0]
 8000d44:	e022      	b.n	8000d8c <_EncodeStr+0x64>
  } else {
    sStart = pText; // Remember start of string.
 8000d46:	68bb      	ldr	r3, [r7, #8]
 8000d48:	617b      	str	r3, [r7, #20]
    //
    // Save space to store count byte(s).
    //
    pLen = pPayload++;
 8000d4a:	68fb      	ldr	r3, [r7, #12]
 8000d4c:	1c5a      	adds	r2, r3, #1
 8000d4e:	60fa      	str	r2, [r7, #12]
 8000d50:	613b      	str	r3, [r7, #16]
    pPayload += 2;
#endif
    //
    // Limit string to maximum length and copy into payload buffer.
    //
    if (Limit > SEGGER_SYSVIEW_MAX_STRING_LEN) {
 8000d52:	687b      	ldr	r3, [r7, #4]
 8000d54:	2b80      	cmp	r3, #128	@ 0x80
 8000d56:	d90a      	bls.n	8000d6e <_EncodeStr+0x46>
      Limit = SEGGER_SYSVIEW_MAX_STRING_LEN;
 8000d58:	2380      	movs	r3, #128	@ 0x80
 8000d5a:	607b      	str	r3, [r7, #4]
    }
    while ((Limit-- > 0) && (*pText != '\0')) {
 8000d5c:	e007      	b.n	8000d6e <_EncodeStr+0x46>
      *pPayload++ = *pText++;
 8000d5e:	68ba      	ldr	r2, [r7, #8]
 8000d60:	1c53      	adds	r3, r2, #1
 8000d62:	60bb      	str	r3, [r7, #8]
 8000d64:	68fb      	ldr	r3, [r7, #12]
 8000d66:	1c59      	adds	r1, r3, #1
 8000d68:	60f9      	str	r1, [r7, #12]
 8000d6a:	7812      	ldrb	r2, [r2, #0]
 8000d6c:	701a      	strb	r2, [r3, #0]
    while ((Limit-- > 0) && (*pText != '\0')) {
 8000d6e:	687b      	ldr	r3, [r7, #4]
 8000d70:	1e5a      	subs	r2, r3, #1
 8000d72:	607a      	str	r2, [r7, #4]
 8000d74:	2b00      	cmp	r3, #0
 8000d76:	d003      	beq.n	8000d80 <_EncodeStr+0x58>
 8000d78:	68bb      	ldr	r3, [r7, #8]
 8000d7a:	781b      	ldrb	r3, [r3, #0]
 8000d7c:	2b00      	cmp	r3, #0
 8000d7e:	d1ee      	bne.n	8000d5e <_EncodeStr+0x36>
    Limit = (unsigned int)(pText - sStart);
    *pLen++ = (U8)255;
    *pLen++ = (U8)((Limit >> 8) & 255);
    *pLen++ = (U8)(Limit & 255);
#else   // Length always encodes in 1 byte
    *pLen = (U8)(pText - sStart);
 8000d80:	68ba      	ldr	r2, [r7, #8]
 8000d82:	697b      	ldr	r3, [r7, #20]
 8000d84:	1ad3      	subs	r3, r2, r3
 8000d86:	b2da      	uxtb	r2, r3
 8000d88:	693b      	ldr	r3, [r7, #16]
 8000d8a:	701a      	strb	r2, [r3, #0]
#endif
  }
  //
  return pPayload;
 8000d8c:	68fb      	ldr	r3, [r7, #12]
}
 8000d8e:	4618      	mov	r0, r3
 8000d90:	371c      	adds	r7, #28
 8000d92:	46bd      	mov	sp, r7
 8000d94:	f85d 7b04 	ldr.w	r7, [sp], #4
 8000d98:	4770      	bx	lr

08000d9a <_PreparePacket>:
*  Additional information
*    The payload length and evnetId are not initialized.
*    PreparePacket only reserves space for them and they are
*    computed and filled in by the sending function.
*/
static U8* _PreparePacket(U8* pPacket) {
 8000d9a:	b480      	push	{r7}
 8000d9c:	b083      	sub	sp, #12
 8000d9e:	af00      	add	r7, sp, #0
 8000da0:	6078      	str	r0, [r7, #4]
  return pPacket + _MAX_ID_BYTES + _MAX_DATA_BYTES;
 8000da2:	687b      	ldr	r3, [r7, #4]
 8000da4:	3307      	adds	r3, #7
}
 8000da6:	4618      	mov	r0, r3
 8000da8:	370c      	adds	r7, #12
 8000daa:	46bd      	mov	sp, r7
 8000dac:	f85d 7b04 	ldr.w	r7, [sp], #4
 8000db0:	4770      	bx	lr
	...

08000db4 <_HandleIncomingPacket>:
*    This function is called each time after sending a packet.
*    Processing incoming packets is done asynchronous. SystemView might
*    already have sent event packets after the host has sent a command.
*/
#if (SEGGER_SYSVIEW_POST_MORTEM_MODE != 1)
static void _HandleIncomingPacket(void) {
 8000db4:	b580      	push	{r7, lr}
 8000db6:	b082      	sub	sp, #8
 8000db8:	af00      	add	r7, sp, #0
  U8  Cmd;
  unsigned int Status;
  //
  Status = SEGGER_RTT_ReadNoLock(CHANNEL_ID_DOWN, &Cmd, 1);
 8000dba:	4b34      	ldr	r3, [pc, #208]	@ (8000e8c <_HandleIncomingPacket+0xd8>)
 8000dbc:	7e1b      	ldrb	r3, [r3, #24]
 8000dbe:	4618      	mov	r0, r3
 8000dc0:	1cfb      	adds	r3, r7, #3
 8000dc2:	2201      	movs	r2, #1
 8000dc4:	4619      	mov	r1, r3
 8000dc6:	f7ff fde3 	bl	8000990 <SEGGER_RTT_ReadNoLock>
 8000dca:	6078      	str	r0, [r7, #4]
  if (Status > 0) {
 8000dcc:	687b      	ldr	r3, [r7, #4]
 8000dce:	2b00      	cmp	r3, #0
 8000dd0:	d057      	beq.n	8000e82 <_HandleIncomingPacket+0xce>
    switch (Cmd) {
 8000dd2:	78fb      	ldrb	r3, [r7, #3]
 8000dd4:	2b80      	cmp	r3, #128	@ 0x80
 8000dd6:	d031      	beq.n	8000e3c <_HandleIncomingPacket+0x88>
 8000dd8:	2b80      	cmp	r3, #128	@ 0x80
 8000dda:	dc40      	bgt.n	8000e5e <_HandleIncomingPacket+0xaa>
 8000ddc:	2b07      	cmp	r3, #7
 8000dde:	dc15      	bgt.n	8000e0c <_HandleIncomingPacket+0x58>
 8000de0:	2b00      	cmp	r3, #0
 8000de2:	dd3c      	ble.n	8000e5e <_HandleIncomingPacket+0xaa>
 8000de4:	3b01      	subs	r3, #1
 8000de6:	2b06      	cmp	r3, #6
 8000de8:	d839      	bhi.n	8000e5e <_HandleIncomingPacket+0xaa>
 8000dea:	a201      	add	r2, pc, #4	@ (adr r2, 8000df0 <_HandleIncomingPacket+0x3c>)
 8000dec:	f852 f023 	ldr.w	pc, [r2, r3, lsl #2]
 8000df0:	08000e13 	.word	0x08000e13
 8000df4:	08000e19 	.word	0x08000e19
 8000df8:	08000e1f 	.word	0x08000e1f
 8000dfc:	08000e25 	.word	0x08000e25
 8000e00:	08000e2b 	.word	0x08000e2b
 8000e04:	08000e31 	.word	0x08000e31
 8000e08:	08000e37 	.word	0x08000e37
 8000e0c:	2b7f      	cmp	r3, #127	@ 0x7f
 8000e0e:	d033      	beq.n	8000e78 <_HandleIncomingPacket+0xc4>
 8000e10:	e025      	b.n	8000e5e <_HandleIncomingPacket+0xaa>
    case SEGGER_SYSVIEW_COMMAND_ID_START:
      SEGGER_SYSVIEW_Start();
 8000e12:	f000 fbef 	bl	80015f4 <SEGGER_SYSVIEW_Start>
      break;
 8000e16:	e034      	b.n	8000e82 <_HandleIncomingPacket+0xce>
    case SEGGER_SYSVIEW_COMMAND_ID_STOP:
      SEGGER_SYSVIEW_Stop();
 8000e18:	f000 fca6 	bl	8001768 <SEGGER_SYSVIEW_Stop>
      break;
 8000e1c:	e031      	b.n	8000e82 <_HandleIncomingPacket+0xce>
    case SEGGER_SYSVIEW_COMMAND_ID_GET_SYSTIME:
      SEGGER_SYSVIEW_RecordSystime();
 8000e1e:	f000 fe7f 	bl	8001b20 <SEGGER_SYSVIEW_RecordSystime>
      break;
 8000e22:	e02e      	b.n	8000e82 <_HandleIncomingPacket+0xce>
    case SEGGER_SYSVIEW_COMMAND_ID_GET_TASKLIST:
      SEGGER_SYSVIEW_SendTaskList();
 8000e24:	f000 fe44 	bl	8001ab0 <SEGGER_SYSVIEW_SendTaskList>
      break;
 8000e28:	e02b      	b.n	8000e82 <_HandleIncomingPacket+0xce>
    case SEGGER_SYSVIEW_COMMAND_ID_GET_SYSDESC:
      SEGGER_SYSVIEW_GetSysDesc();
 8000e2a:	f000 fcc3 	bl	80017b4 <SEGGER_SYSVIEW_GetSysDesc>
      break;
 8000e2e:	e028      	b.n	8000e82 <_HandleIncomingPacket+0xce>
    case SEGGER_SYSVIEW_COMMAND_ID_GET_NUMMODULES:
      SEGGER_SYSVIEW_SendNumModules();
 8000e30:	f001 f950 	bl	80020d4 <SEGGER_SYSVIEW_SendNumModules>
      break;
 8000e34:	e025      	b.n	8000e82 <_HandleIncomingPacket+0xce>
    case SEGGER_SYSVIEW_COMMAND_ID_GET_MODULEDESC:
      SEGGER_SYSVIEW_SendModuleDescription();
 8000e36:	f001 f92f 	bl	8002098 <SEGGER_SYSVIEW_SendModuleDescription>
      break;
 8000e3a:	e022      	b.n	8000e82 <_HandleIncomingPacket+0xce>
    case SEGGER_SYSVIEW_COMMAND_ID_GET_MODULE:
      Status = SEGGER_RTT_ReadNoLock(CHANNEL_ID_DOWN, &Cmd, 1);
 8000e3c:	4b13      	ldr	r3, [pc, #76]	@ (8000e8c <_HandleIncomingPacket+0xd8>)
 8000e3e:	7e1b      	ldrb	r3, [r3, #24]
 8000e40:	4618      	mov	r0, r3
 8000e42:	1cfb      	adds	r3, r7, #3
 8000e44:	2201      	movs	r2, #1
 8000e46:	4619      	mov	r1, r3
 8000e48:	f7ff fda2 	bl	8000990 <SEGGER_RTT_ReadNoLock>
 8000e4c:	6078      	str	r0, [r7, #4]
      if (Status > 0) {
 8000e4e:	687b      	ldr	r3, [r7, #4]
 8000e50:	2b00      	cmp	r3, #0
 8000e52:	d013      	beq.n	8000e7c <_HandleIncomingPacket+0xc8>
        SEGGER_SYSVIEW_SendModule(Cmd);
 8000e54:	78fb      	ldrb	r3, [r7, #3]
 8000e56:	4618      	mov	r0, r3
 8000e58:	f001 f894 	bl	8001f84 <SEGGER_SYSVIEW_SendModule>
      }
      break;
 8000e5c:	e00e      	b.n	8000e7c <_HandleIncomingPacket+0xc8>
    case SEGGER_SYSVIEW_COMMAND_ID_HEARTBEAT:
      break;
    default:
      if (Cmd >= 128) { // Unknown extended command. Dummy read its parameter.
 8000e5e:	78fb      	ldrb	r3, [r7, #3]
 8000e60:	b25b      	sxtb	r3, r3
 8000e62:	2b00      	cmp	r3, #0
 8000e64:	da0c      	bge.n	8000e80 <_HandleIncomingPacket+0xcc>
        SEGGER_RTT_ReadNoLock(CHANNEL_ID_DOWN, &Cmd, 1);
 8000e66:	4b09      	ldr	r3, [pc, #36]	@ (8000e8c <_HandleIncomingPacket+0xd8>)
 8000e68:	7e1b      	ldrb	r3, [r3, #24]
 8000e6a:	4618      	mov	r0, r3
 8000e6c:	1cfb      	adds	r3, r7, #3
 8000e6e:	2201      	movs	r2, #1
 8000e70:	4619      	mov	r1, r3
 8000e72:	f7ff fd8d 	bl	8000990 <SEGGER_RTT_ReadNoLock>
      }
      break;
 8000e76:	e003      	b.n	8000e80 <_HandleIncomingPacket+0xcc>
      break;
 8000e78:	bf00      	nop
 8000e7a:	e002      	b.n	8000e82 <_HandleIncomingPacket+0xce>
      break;
 8000e7c:	bf00      	nop
 8000e7e:	e000      	b.n	8000e82 <_HandleIncomingPacket+0xce>
      break;
 8000e80:	bf00      	nop
    }
  }
}
 8000e82:	bf00      	nop
 8000e84:	3708      	adds	r7, #8
 8000e86:	46bd      	mov	sp, r7
 8000e88:	bd80      	pop	{r7, pc}
 8000e8a:	bf00      	nop
 8000e8c:	200015f0 	.word	0x200015f0

08000e90 <_TrySendOverflowPacket>:
*    !=0:  Success, Message sent (stored in RTT-Buffer)
*    ==0:  Buffer full, Message *NOT* stored
*
*/
#if (SEGGER_SYSVIEW_POST_MORTEM_MODE != 1)
static int _TrySendOverflowPacket(void) {
 8000e90:	b580      	push	{r7, lr}
 8000e92:	b08c      	sub	sp, #48	@ 0x30
 8000e94:	af00      	add	r7, sp, #0
  I32 Delta;
  int Status;
  U8  aPacket[11];
  U8* pPayload;

  aPacket[0] = SYSVIEW_EVTID_OVERFLOW;      // 1
 8000e96:	2301      	movs	r3, #1
 8000e98:	713b      	strb	r3, [r7, #4]
  pPayload   = &aPacket[1];
 8000e9a:	1d3b      	adds	r3, r7, #4
 8000e9c:	3301      	adds	r3, #1
 8000e9e:	61fb      	str	r3, [r7, #28]
  ENCODE_U32(pPayload, _SYSVIEW_Globals.DropCount);
 8000ea0:	69fb      	ldr	r3, [r7, #28]
 8000ea2:	62fb      	str	r3, [r7, #44]	@ 0x2c
 8000ea4:	4b31      	ldr	r3, [pc, #196]	@ (8000f6c <_TrySendOverflowPacket+0xdc>)
 8000ea6:	695b      	ldr	r3, [r3, #20]
 8000ea8:	62bb      	str	r3, [r7, #40]	@ 0x28
 8000eaa:	e00b      	b.n	8000ec4 <_TrySendOverflowPacket+0x34>
 8000eac:	6abb      	ldr	r3, [r7, #40]	@ 0x28
 8000eae:	b2da      	uxtb	r2, r3
 8000eb0:	6afb      	ldr	r3, [r7, #44]	@ 0x2c
 8000eb2:	1c59      	adds	r1, r3, #1
 8000eb4:	62f9      	str	r1, [r7, #44]	@ 0x2c
 8000eb6:	f062 027f 	orn	r2, r2, #127	@ 0x7f
 8000eba:	b2d2      	uxtb	r2, r2
 8000ebc:	701a      	strb	r2, [r3, #0]
 8000ebe:	6abb      	ldr	r3, [r7, #40]	@ 0x28
 8000ec0:	09db      	lsrs	r3, r3, #7
 8000ec2:	62bb      	str	r3, [r7, #40]	@ 0x28
 8000ec4:	6abb      	ldr	r3, [r7, #40]	@ 0x28
 8000ec6:	2b7f      	cmp	r3, #127	@ 0x7f
 8000ec8:	d8f0      	bhi.n	8000eac <_TrySendOverflowPacket+0x1c>
 8000eca:	6afb      	ldr	r3, [r7, #44]	@ 0x2c
 8000ecc:	1c5a      	adds	r2, r3, #1
 8000ece:	62fa      	str	r2, [r7, #44]	@ 0x2c
 8000ed0:	6aba      	ldr	r2, [r7, #40]	@ 0x28
 8000ed2:	b2d2      	uxtb	r2, r2
 8000ed4:	701a      	strb	r2, [r3, #0]
 8000ed6:	6afb      	ldr	r3, [r7, #44]	@ 0x2c
 8000ed8:	61fb      	str	r3, [r7, #28]
  //
  // Compute time stamp delta and append it to packet.
  //
  TimeStamp  = SEGGER_SYSVIEW_GET_TIMESTAMP();
 8000eda:	4b25      	ldr	r3, [pc, #148]	@ (8000f70 <_TrySendOverflowPacket+0xe0>)
 8000edc:	681b      	ldr	r3, [r3, #0]
 8000ede:	61bb      	str	r3, [r7, #24]
  Delta = (I32)(TimeStamp - _SYSVIEW_Globals.LastTxTimeStamp);
 8000ee0:	4b22      	ldr	r3, [pc, #136]	@ (8000f6c <_TrySendOverflowPacket+0xdc>)
 8000ee2:	68db      	ldr	r3, [r3, #12]
 8000ee4:	69ba      	ldr	r2, [r7, #24]
 8000ee6:	1ad3      	subs	r3, r2, r3
 8000ee8:	617b      	str	r3, [r7, #20]
  MAKE_DELTA_32BIT(Delta);
  ENCODE_U32(pPayload, Delta);
 8000eea:	69fb      	ldr	r3, [r7, #28]
 8000eec:	627b      	str	r3, [r7, #36]	@ 0x24
 8000eee:	697b      	ldr	r3, [r7, #20]
 8000ef0:	623b      	str	r3, [r7, #32]
 8000ef2:	e00b      	b.n	8000f0c <_TrySendOverflowPacket+0x7c>
 8000ef4:	6a3b      	ldr	r3, [r7, #32]
 8000ef6:	b2da      	uxtb	r2, r3
 8000ef8:	6a7b      	ldr	r3, [r7, #36]	@ 0x24
 8000efa:	1c59      	adds	r1, r3, #1
 8000efc:	6279      	str	r1, [r7, #36]	@ 0x24
 8000efe:	f062 027f 	orn	r2, r2, #127	@ 0x7f
 8000f02:	b2d2      	uxtb	r2, r2
 8000f04:	701a      	strb	r2, [r3, #0]
 8000f06:	6a3b      	ldr	r3, [r7, #32]
 8000f08:	09db      	lsrs	r3, r3, #7
 8000f0a:	623b      	str	r3, [r7, #32]
 8000f0c:	6a3b      	ldr	r3, [r7, #32]
 8000f0e:	2b7f      	cmp	r3, #127	@ 0x7f
 8000f10:	d8f0      	bhi.n	8000ef4 <_TrySendOverflowPacket+0x64>
 8000f12:	6a7b      	ldr	r3, [r7, #36]	@ 0x24
 8000f14:	1c5a      	adds	r2, r3, #1
 8000f16:	627a      	str	r2, [r7, #36]	@ 0x24
 8000f18:	6a3a      	ldr	r2, [r7, #32]
 8000f1a:	b2d2      	uxtb	r2, r2
 8000f1c:	701a      	strb	r2, [r3, #0]
 8000f1e:	6a7b      	ldr	r3, [r7, #36]	@ 0x24
 8000f20:	61fb      	str	r3, [r7, #28]
  //
  // Try to store packet in RTT buffer and update time stamp when this was successful
  //
  Status = (int)SEGGER_RTT_WriteSkipNoLock(CHANNEL_ID_UP, aPacket, (unsigned int)(pPayload - aPacket));
 8000f22:	4b12      	ldr	r3, [pc, #72]	@ (8000f6c <_TrySendOverflowPacket+0xdc>)
 8000f24:	785b      	ldrb	r3, [r3, #1]
 8000f26:	4618      	mov	r0, r3
 8000f28:	1d3b      	adds	r3, r7, #4
 8000f2a:	69fa      	ldr	r2, [r7, #28]
 8000f2c:	1ad3      	subs	r3, r2, r3
 8000f2e:	461a      	mov	r2, r3
 8000f30:	1d3b      	adds	r3, r7, #4
 8000f32:	4619      	mov	r1, r3
 8000f34:	f7ff f96c 	bl	8000210 <SEGGER_RTT_ASM_WriteSkipNoLock>
 8000f38:	4603      	mov	r3, r0
 8000f3a:	613b      	str	r3, [r7, #16]
  SEGGER_SYSVIEW_ON_EVENT_RECORDED(pPayload - aPacket);
  if (Status) {
 8000f3c:	693b      	ldr	r3, [r7, #16]
 8000f3e:	2b00      	cmp	r3, #0
 8000f40:	d009      	beq.n	8000f56 <_TrySendOverflowPacket+0xc6>
    _SYSVIEW_Globals.LastTxTimeStamp = TimeStamp;
 8000f42:	4a0a      	ldr	r2, [pc, #40]	@ (8000f6c <_TrySendOverflowPacket+0xdc>)
 8000f44:	69bb      	ldr	r3, [r7, #24]
 8000f46:	60d3      	str	r3, [r2, #12]
    _SYSVIEW_Globals.EnableState--; // EnableState has been 2, will be 1. Always.
 8000f48:	4b08      	ldr	r3, [pc, #32]	@ (8000f6c <_TrySendOverflowPacket+0xdc>)
 8000f4a:	781b      	ldrb	r3, [r3, #0]
 8000f4c:	3b01      	subs	r3, #1
 8000f4e:	b2da      	uxtb	r2, r3
 8000f50:	4b06      	ldr	r3, [pc, #24]	@ (8000f6c <_TrySendOverflowPacket+0xdc>)
 8000f52:	701a      	strb	r2, [r3, #0]
 8000f54:	e004      	b.n	8000f60 <_TrySendOverflowPacket+0xd0>
  } else {
    _SYSVIEW_Globals.DropCount++;
 8000f56:	4b05      	ldr	r3, [pc, #20]	@ (8000f6c <_TrySendOverflowPacket+0xdc>)
 8000f58:	695b      	ldr	r3, [r3, #20]
 8000f5a:	3301      	adds	r3, #1
 8000f5c:	4a03      	ldr	r2, [pc, #12]	@ (8000f6c <_TrySendOverflowPacket+0xdc>)
 8000f5e:	6153      	str	r3, [r2, #20]
  }
  //
  return Status;
 8000f60:	693b      	ldr	r3, [r7, #16]
}
 8000f62:	4618      	mov	r0, r3
 8000f64:	3730      	adds	r7, #48	@ 0x30
 8000f66:	46bd      	mov	sp, r7
 8000f68:	bd80      	pop	{r7, pc}
 8000f6a:	bf00      	nop
 8000f6c:	200015f0 	.word	0x200015f0
 8000f70:	e0001004 	.word	0xe0001004

08000f74 <_SendPacket>:
*                   There must be at least 4 bytes free to prepend Id and Length.
*    pEndPacket   - Pointer to end of packet payload.
*    EventId      - Id of the event to send.
*
*/
static void _SendPacket(U8* pStartPacket, U8* pEndPacket, unsigned int EventId) {
 8000f74:	b580      	push	{r7, lr}
 8000f76:	b08a      	sub	sp, #40	@ 0x28
 8000f78:	af00      	add	r7, sp, #0
 8000f7a:	60f8      	str	r0, [r7, #12]
 8000f7c:	60b9      	str	r1, [r7, #8]
 8000f7e:	607a      	str	r2, [r7, #4]
#if (SEGGER_SYSVIEW_POST_MORTEM_MODE == 1)
  if (_SYSVIEW_Globals.EnableState == 0) {
    goto SendDone;
  }
#else
  if (_SYSVIEW_Globals.EnableState == 1) {  // Enabled, no dropped packets remaining
 8000f80:	4b98      	ldr	r3, [pc, #608]	@ (80011e4 <_SendPacket+0x270>)
 8000f82:	781b      	ldrb	r3, [r3, #0]
 8000f84:	2b01      	cmp	r3, #1
 8000f86:	d010      	beq.n	8000faa <_SendPacket+0x36>
    goto Send;
  }
  if (_SYSVIEW_Globals.EnableState == 0) {
 8000f88:	4b96      	ldr	r3, [pc, #600]	@ (80011e4 <_SendPacket+0x270>)
 8000f8a:	781b      	ldrb	r3, [r3, #0]
 8000f8c:	2b00      	cmp	r3, #0
 8000f8e:	f000 812d 	beq.w	80011ec <_SendPacket+0x278>
  //
  // Handle buffer full situations:
  // Have packets been dropped before because buffer was full?
  // In this case try to send and overflow packet.
  //
  if (_SYSVIEW_Globals.EnableState == 2) {
 8000f92:	4b94      	ldr	r3, [pc, #592]	@ (80011e4 <_SendPacket+0x270>)
 8000f94:	781b      	ldrb	r3, [r3, #0]
 8000f96:	2b02      	cmp	r3, #2
 8000f98:	d109      	bne.n	8000fae <_SendPacket+0x3a>
    _TrySendOverflowPacket();
 8000f9a:	f7ff ff79 	bl	8000e90 <_TrySendOverflowPacket>
    if (_SYSVIEW_Globals.EnableState != 1) {
 8000f9e:	4b91      	ldr	r3, [pc, #580]	@ (80011e4 <_SendPacket+0x270>)
 8000fa0:	781b      	ldrb	r3, [r3, #0]
 8000fa2:	2b01      	cmp	r3, #1
 8000fa4:	f040 8124 	bne.w	80011f0 <_SendPacket+0x27c>
      goto SendDone;
    }
  }
Send:
 8000fa8:	e001      	b.n	8000fae <_SendPacket+0x3a>
    goto Send;
 8000faa:	bf00      	nop
 8000fac:	e000      	b.n	8000fb0 <_SendPacket+0x3c>
Send:
 8000fae:	bf00      	nop
#endif
  //
  // Check if event is disabled from being recorded.
  //
  if (EventId < 32) {
 8000fb0:	687b      	ldr	r3, [r7, #4]
 8000fb2:	2b1f      	cmp	r3, #31
 8000fb4:	d809      	bhi.n	8000fca <_SendPacket+0x56>
    if (_SYSVIEW_Globals.DisabledEvents & ((U32)1u << EventId)) {
 8000fb6:	4b8b      	ldr	r3, [pc, #556]	@ (80011e4 <_SendPacket+0x270>)
 8000fb8:	69da      	ldr	r2, [r3, #28]
 8000fba:	687b      	ldr	r3, [r7, #4]
 8000fbc:	fa22 f303 	lsr.w	r3, r2, r3
 8000fc0:	f003 0301 	and.w	r3, r3, #1
 8000fc4:	2b00      	cmp	r3, #0
 8000fc6:	f040 8115 	bne.w	80011f4 <_SendPacket+0x280>
  //
  // Prepare actual packet.
  // If it is a known packet, prepend eventId only,
  // otherwise prepend packet length and eventId.
  //
  if (EventId < 24) {
 8000fca:	687b      	ldr	r3, [r7, #4]
 8000fcc:	2b17      	cmp	r3, #23
 8000fce:	d807      	bhi.n	8000fe0 <_SendPacket+0x6c>
    *--pStartPacket = (U8)EventId;
 8000fd0:	68fb      	ldr	r3, [r7, #12]
 8000fd2:	3b01      	subs	r3, #1
 8000fd4:	60fb      	str	r3, [r7, #12]
 8000fd6:	687b      	ldr	r3, [r7, #4]
 8000fd8:	b2da      	uxtb	r2, r3
 8000fda:	68fb      	ldr	r3, [r7, #12]
 8000fdc:	701a      	strb	r2, [r3, #0]
 8000fde:	e0c4      	b.n	800116a <_SendPacket+0x1f6>
  } else {
    //
    // Get data length and prepend it.
    //
    NumBytes = (unsigned int)(pEndPacket - pStartPacket);
 8000fe0:	68ba      	ldr	r2, [r7, #8]
 8000fe2:	68fb      	ldr	r3, [r7, #12]
 8000fe4:	1ad3      	subs	r3, r2, r3
 8000fe6:	61fb      	str	r3, [r7, #28]
        *--pStartPacket = (U8)((NumBytes >>  7) | 0x80);
        *--pStartPacket = (U8)(NumBytes | 0x80);
      }
    }
#else
    if (NumBytes > 127) {
 8000fe8:	69fb      	ldr	r3, [r7, #28]
 8000fea:	2b7f      	cmp	r3, #127	@ 0x7f
 8000fec:	d912      	bls.n	8001014 <_SendPacket+0xa0>
      *--pStartPacket = (U8)(NumBytes >> 7);
 8000fee:	69fb      	ldr	r3, [r7, #28]
 8000ff0:	09da      	lsrs	r2, r3, #7
 8000ff2:	68fb      	ldr	r3, [r7, #12]
 8000ff4:	3b01      	subs	r3, #1
 8000ff6:	60fb      	str	r3, [r7, #12]
 8000ff8:	b2d2      	uxtb	r2, r2
 8000ffa:	68fb      	ldr	r3, [r7, #12]
 8000ffc:	701a      	strb	r2, [r3, #0]
      *--pStartPacket = (U8)(NumBytes | 0x80);
 8000ffe:	69fb      	ldr	r3, [r7, #28]
 8001000:	b2db      	uxtb	r3, r3
 8001002:	68fa      	ldr	r2, [r7, #12]
 8001004:	3a01      	subs	r2, #1
 8001006:	60fa      	str	r2, [r7, #12]
 8001008:	f063 037f 	orn	r3, r3, #127	@ 0x7f
 800100c:	b2da      	uxtb	r2, r3
 800100e:	68fb      	ldr	r3, [r7, #12]
 8001010:	701a      	strb	r2, [r3, #0]
 8001012:	e006      	b.n	8001022 <_SendPacket+0xae>
    } else {
      *--pStartPacket = (U8)NumBytes;
 8001014:	68fb      	ldr	r3, [r7, #12]
 8001016:	3b01      	subs	r3, #1
 8001018:	60fb      	str	r3, [r7, #12]
 800101a:	69fb      	ldr	r3, [r7, #28]
 800101c:	b2da      	uxtb	r2, r3
 800101e:	68fb      	ldr	r3, [r7, #12]
 8001020:	701a      	strb	r2, [r3, #0]
#endif
    //
    // Prepend EventId.
    //
#if SEGGER_SYSVIEW_SUPPORT_LONG_ID
    if (EventId < 127) {
 8001022:	687b      	ldr	r3, [r7, #4]
 8001024:	2b7e      	cmp	r3, #126	@ 0x7e
 8001026:	d807      	bhi.n	8001038 <_SendPacket+0xc4>
      *--pStartPacket = (U8)EventId;
 8001028:	68fb      	ldr	r3, [r7, #12]
 800102a:	3b01      	subs	r3, #1
 800102c:	60fb      	str	r3, [r7, #12]
 800102e:	687b      	ldr	r3, [r7, #4]
 8001030:	b2da      	uxtb	r2, r3
 8001032:	68fb      	ldr	r3, [r7, #12]
 8001034:	701a      	strb	r2, [r3, #0]
 8001036:	e098      	b.n	800116a <_SendPacket+0x1f6>
    } else {
      //
      // Backwards U32 encode EventId.
      //
      if (EventId < (1u << 14)) { // Encodes in 2 bytes
 8001038:	687b      	ldr	r3, [r7, #4]
 800103a:	f5b3 4f80 	cmp.w	r3, #16384	@ 0x4000
 800103e:	d212      	bcs.n	8001066 <_SendPacket+0xf2>
        *--pStartPacket = (U8)(EventId >>  7);
 8001040:	687b      	ldr	r3, [r7, #4]
 8001042:	09da      	lsrs	r2, r3, #7
 8001044:	68fb      	ldr	r3, [r7, #12]
 8001046:	3b01      	subs	r3, #1
 8001048:	60fb      	str	r3, [r7, #12]
 800104a:	b2d2      	uxtb	r2, r2
 800104c:	68fb      	ldr	r3, [r7, #12]
 800104e:	701a      	strb	r2, [r3, #0]
        *--pStartPacket = (U8)(EventId | 0x80);
 8001050:	687b      	ldr	r3, [r7, #4]
 8001052:	b2db      	uxtb	r3, r3
 8001054:	68fa      	ldr	r2, [r7, #12]
 8001056:	3a01      	subs	r2, #1
 8001058:	60fa      	str	r2, [r7, #12]
 800105a:	f063 037f 	orn	r3, r3, #127	@ 0x7f
 800105e:	b2da      	uxtb	r2, r3
 8001060:	68fb      	ldr	r3, [r7, #12]
 8001062:	701a      	strb	r2, [r3, #0]
 8001064:	e081      	b.n	800116a <_SendPacket+0x1f6>
      } else if (EventId < (1ul << 21)) {    // Encodes in 3 bytes
 8001066:	687b      	ldr	r3, [r7, #4]
 8001068:	f5b3 1f00 	cmp.w	r3, #2097152	@ 0x200000
 800106c:	d21d      	bcs.n	80010aa <_SendPacket+0x136>
        *--pStartPacket = (U8)(EventId >> 14);
 800106e:	687b      	ldr	r3, [r7, #4]
 8001070:	0b9a      	lsrs	r2, r3, #14
 8001072:	68fb      	ldr	r3, [r7, #12]
 8001074:	3b01      	subs	r3, #1
 8001076:	60fb      	str	r3, [r7, #12]
 8001078:	b2d2      	uxtb	r2, r2
 800107a:	68fb      	ldr	r3, [r7, #12]
 800107c:	701a      	strb	r2, [r3, #0]
        *--pStartPacket = (U8)((EventId >>  7) | 0x80);
 800107e:	687b      	ldr	r3, [r7, #4]
 8001080:	09db      	lsrs	r3, r3, #7
 8001082:	b2db      	uxtb	r3, r3
 8001084:	68fa      	ldr	r2, [r7, #12]
 8001086:	3a01      	subs	r2, #1
 8001088:	60fa      	str	r2, [r7, #12]
 800108a:	f063 037f 	orn	r3, r3, #127	@ 0x7f
 800108e:	b2da      	uxtb	r2, r3
 8001090:	68fb      	ldr	r3, [r7, #12]
 8001092:	701a      	strb	r2, [r3, #0]
        *--pStartPacket = (U8)(EventId | 0x80);
 8001094:	687b      	ldr	r3, [r7, #4]
 8001096:	b2db      	uxtb	r3, r3
 8001098:	68fa      	ldr	r2, [r7, #12]
 800109a:	3a01      	subs	r2, #1
 800109c:	60fa      	str	r2, [r7, #12]
 800109e:	f063 037f 	orn	r3, r3, #127	@ 0x7f
 80010a2:	b2da      	uxtb	r2, r3
 80010a4:	68fb      	ldr	r3, [r7, #12]
 80010a6:	701a      	strb	r2, [r3, #0]
 80010a8:	e05f      	b.n	800116a <_SendPacket+0x1f6>
      } else if (EventId < (1ul << 28)) {    // Encodes in 4 bytes
 80010aa:	687b      	ldr	r3, [r7, #4]
 80010ac:	f1b3 5f80 	cmp.w	r3, #268435456	@ 0x10000000
 80010b0:	d228      	bcs.n	8001104 <_SendPacket+0x190>
        *--pStartPacket = (U8)(EventId >> 21);
 80010b2:	687b      	ldr	r3, [r7, #4]
 80010b4:	0d5a      	lsrs	r2, r3, #21
 80010b6:	68fb      	ldr	r3, [r7, #12]
 80010b8:	3b01      	subs	r3, #1
 80010ba:	60fb      	str	r3, [r7, #12]
 80010bc:	b2d2      	uxtb	r2, r2
 80010be:	68fb      	ldr	r3, [r7, #12]
 80010c0:	701a      	strb	r2, [r3, #0]
        *--pStartPacket = (U8)((EventId >> 14) | 0x80);
 80010c2:	687b      	ldr	r3, [r7, #4]
 80010c4:	0b9b      	lsrs	r3, r3, #14
 80010c6:	b2db      	uxtb	r3, r3
 80010c8:	68fa      	ldr	r2, [r7, #12]
 80010ca:	3a01      	subs	r2, #1
 80010cc:	60fa      	str	r2, [r7, #12]
 80010ce:	f063 037f 	orn	r3, r3, #127	@ 0x7f
 80010d2:	b2da      	uxtb	r2, r3
 80010d4:	68fb      	ldr	r3, [r7, #12]
 80010d6:	701a      	strb	r2, [r3, #0]
        *--pStartPacket = (U8)((EventId >>  7) | 0x80);
 80010d8:	687b      	ldr	r3, [r7, #4]
 80010da:	09db      	lsrs	r3, r3, #7
 80010dc:	b2db      	uxtb	r3, r3
 80010de:	68fa      	ldr	r2, [r7, #12]
 80010e0:	3a01      	subs	r2, #1
 80010e2:	60fa      	str	r2, [r7, #12]
 80010e4:	f063 037f 	orn	r3, r3, #127	@ 0x7f
 80010e8:	b2da      	uxtb	r2, r3
 80010ea:	68fb      	ldr	r3, [r7, #12]
 80010ec:	701a      	strb	r2, [r3, #0]
        *--pStartPacket = (U8)(EventId | 0x80);
 80010ee:	687b      	ldr	r3, [r7, #4]
 80010f0:	b2db      	uxtb	r3, r3
 80010f2:	68fa      	ldr	r2, [r7, #12]
 80010f4:	3a01      	subs	r2, #1
 80010f6:	60fa      	str	r2, [r7, #12]
 80010f8:	f063 037f 	orn	r3, r3, #127	@ 0x7f
 80010fc:	b2da      	uxtb	r2, r3
 80010fe:	68fb      	ldr	r3, [r7, #12]
 8001100:	701a      	strb	r2, [r3, #0]
 8001102:	e032      	b.n	800116a <_SendPacket+0x1f6>
      } else {                              // Encodes in 5 bytes
        *--pStartPacket = (U8)(EventId >> 28);
 8001104:	687b      	ldr	r3, [r7, #4]
 8001106:	0f1a      	lsrs	r2, r3, #28
 8001108:	68fb      	ldr	r3, [r7, #12]
 800110a:	3b01      	subs	r3, #1
 800110c:	60fb      	str	r3, [r7, #12]
 800110e:	b2d2      	uxtb	r2, r2
 8001110:	68fb      	ldr	r3, [r7, #12]
 8001112:	701a      	strb	r2, [r3, #0]
        *--pStartPacket = (U8)((EventId >> 21) | 0x80);
 8001114:	687b      	ldr	r3, [r7, #4]
 8001116:	0d5b      	lsrs	r3, r3, #21
 8001118:	b2db      	uxtb	r3, r3
 800111a:	68fa      	ldr	r2, [r7, #12]
 800111c:	3a01      	subs	r2, #1
 800111e:	60fa      	str	r2, [r7, #12]
 8001120:	f063 037f 	orn	r3, r3, #127	@ 0x7f
 8001124:	b2da      	uxtb	r2, r3
 8001126:	68fb      	ldr	r3, [r7, #12]
 8001128:	701a      	strb	r2, [r3, #0]
        *--pStartPacket = (U8)((EventId >> 14) | 0x80);
 800112a:	687b      	ldr	r3, [r7, #4]
 800112c:	0b9b      	lsrs	r3, r3, #14
 800112e:	b2db      	uxtb	r3, r3
 8001130:	68fa      	ldr	r2, [r7, #12]
 8001132:	3a01      	subs	r2, #1
 8001134:	60fa      	str	r2, [r7, #12]
 8001136:	f063 037f 	orn	r3, r3, #127	@ 0x7f
 800113a:	b2da      	uxtb	r2, r3
 800113c:	68fb      	ldr	r3, [r7, #12]
 800113e:	701a      	strb	r2, [r3, #0]
        *--pStartPacket = (U8)((EventId >>  7) | 0x80);
 8001140:	687b      	ldr	r3, [r7, #4]
 8001142:	09db      	lsrs	r3, r3, #7
 8001144:	b2db      	uxtb	r3, r3
 8001146:	68fa      	ldr	r2, [r7, #12]
 8001148:	3a01      	subs	r2, #1
 800114a:	60fa      	str	r2, [r7, #12]
 800114c:	f063 037f 	orn	r3, r3, #127	@ 0x7f
 8001150:	b2da      	uxtb	r2, r3
 8001152:	68fb      	ldr	r3, [r7, #12]
 8001154:	701a      	strb	r2, [r3, #0]
        *--pStartPacket = (U8)(EventId | 0x80);
 8001156:	687b      	ldr	r3, [r7, #4]
 8001158:	b2db      	uxtb	r3, r3
 800115a:	68fa      	ldr	r2, [r7, #12]
 800115c:	3a01      	subs	r2, #1
 800115e:	60fa      	str	r2, [r7, #12]
 8001160:	f063 037f 	orn	r3, r3, #127	@ 0x7f
 8001164:	b2da      	uxtb	r2, r3
 8001166:	68fb      	ldr	r3, [r7, #12]
 8001168:	701a      	strb	r2, [r3, #0]
#endif
  }
  //
  // Compute time stamp delta and append it to packet.
  //
  TimeStamp  = SEGGER_SYSVIEW_GET_TIMESTAMP();
 800116a:	4b1f      	ldr	r3, [pc, #124]	@ (80011e8 <_SendPacket+0x274>)
 800116c:	681b      	ldr	r3, [r3, #0]
 800116e:	61bb      	str	r3, [r7, #24]
  Delta = TimeStamp - _SYSVIEW_Globals.LastTxTimeStamp;
 8001170:	4b1c      	ldr	r3, [pc, #112]	@ (80011e4 <_SendPacket+0x270>)
 8001172:	68db      	ldr	r3, [r3, #12]
 8001174:	69ba      	ldr	r2, [r7, #24]
 8001176:	1ad3      	subs	r3, r2, r3
 8001178:	617b      	str	r3, [r7, #20]
  MAKE_DELTA_32BIT(Delta);
  ENCODE_U32(pEndPacket, Delta);
 800117a:	68bb      	ldr	r3, [r7, #8]
 800117c:	627b      	str	r3, [r7, #36]	@ 0x24
 800117e:	697b      	ldr	r3, [r7, #20]
 8001180:	623b      	str	r3, [r7, #32]
 8001182:	e00b      	b.n	800119c <_SendPacket+0x228>
 8001184:	6a3b      	ldr	r3, [r7, #32]
 8001186:	b2da      	uxtb	r2, r3
 8001188:	6a7b      	ldr	r3, [r7, #36]	@ 0x24
 800118a:	1c59      	adds	r1, r3, #1
 800118c:	6279      	str	r1, [r7, #36]	@ 0x24
 800118e:	f062 027f 	orn	r2, r2, #127	@ 0x7f
 8001192:	b2d2      	uxtb	r2, r2
 8001194:	701a      	strb	r2, [r3, #0]
 8001196:	6a3b      	ldr	r3, [r7, #32]
 8001198:	09db      	lsrs	r3, r3, #7
 800119a:	623b      	str	r3, [r7, #32]
 800119c:	6a3b      	ldr	r3, [r7, #32]
 800119e:	2b7f      	cmp	r3, #127	@ 0x7f
 80011a0:	d8f0      	bhi.n	8001184 <_SendPacket+0x210>
 80011a2:	6a7b      	ldr	r3, [r7, #36]	@ 0x24
 80011a4:	1c5a      	adds	r2, r3, #1
 80011a6:	627a      	str	r2, [r7, #36]	@ 0x24
 80011a8:	6a3a      	ldr	r2, [r7, #32]
 80011aa:	b2d2      	uxtb	r2, r2
 80011ac:	701a      	strb	r2, [r3, #0]
 80011ae:	6a7b      	ldr	r3, [r7, #36]	@ 0x24
 80011b0:	60bb      	str	r3, [r7, #8]
  _SYSVIEW_Globals.LastTxTimeStamp = TimeStamp;
#else
  //
  // Try to store packet in RTT buffer and update time stamp when this was successful
  //
  Status = SEGGER_RTT_WriteSkipNoLock(CHANNEL_ID_UP, pStartPacket, (unsigned int)(pEndPacket - pStartPacket));
 80011b2:	4b0c      	ldr	r3, [pc, #48]	@ (80011e4 <_SendPacket+0x270>)
 80011b4:	785b      	ldrb	r3, [r3, #1]
 80011b6:	4618      	mov	r0, r3
 80011b8:	68ba      	ldr	r2, [r7, #8]
 80011ba:	68fb      	ldr	r3, [r7, #12]
 80011bc:	1ad3      	subs	r3, r2, r3
 80011be:	461a      	mov	r2, r3
 80011c0:	68f9      	ldr	r1, [r7, #12]
 80011c2:	f7ff f825 	bl	8000210 <SEGGER_RTT_ASM_WriteSkipNoLock>
 80011c6:	6138      	str	r0, [r7, #16]
  SEGGER_SYSVIEW_ON_EVENT_RECORDED(pEndPacket - pStartPacket);
  if (Status) {
 80011c8:	693b      	ldr	r3, [r7, #16]
 80011ca:	2b00      	cmp	r3, #0
 80011cc:	d003      	beq.n	80011d6 <_SendPacket+0x262>
    _SYSVIEW_Globals.LastTxTimeStamp = TimeStamp;
 80011ce:	4a05      	ldr	r2, [pc, #20]	@ (80011e4 <_SendPacket+0x270>)
 80011d0:	69bb      	ldr	r3, [r7, #24]
 80011d2:	60d3      	str	r3, [r2, #12]
 80011d4:	e00f      	b.n	80011f6 <_SendPacket+0x282>
  } else {
    _SYSVIEW_Globals.EnableState++; // EnableState has been 1, will be 2. Always.
 80011d6:	4b03      	ldr	r3, [pc, #12]	@ (80011e4 <_SendPacket+0x270>)
 80011d8:	781b      	ldrb	r3, [r3, #0]
 80011da:	3301      	adds	r3, #1
 80011dc:	b2da      	uxtb	r2, r3
 80011de:	4b01      	ldr	r3, [pc, #4]	@ (80011e4 <_SendPacket+0x270>)
 80011e0:	701a      	strb	r2, [r3, #0]
 80011e2:	e008      	b.n	80011f6 <_SendPacket+0x282>
 80011e4:	200015f0 	.word	0x200015f0
 80011e8:	e0001004 	.word	0xe0001004
    goto SendDone;
 80011ec:	bf00      	nop
 80011ee:	e002      	b.n	80011f6 <_SendPacket+0x282>
      goto SendDone;
 80011f0:	bf00      	nop
 80011f2:	e000      	b.n	80011f6 <_SendPacket+0x282>
      goto SendDone;
 80011f4:	bf00      	nop
  //
  // Check if host is sending data which needs to be processed.
  // Note that since this code is called for every packet, it is very time critical, so we do
  // only what is really needed here, which is checking if there is any data
  //
  if (SEGGER_RTT_HASDATA(CHANNEL_ID_DOWN)) {
 80011f6:	4b14      	ldr	r3, [pc, #80]	@ (8001248 <_SendPacket+0x2d4>)
 80011f8:	7e1b      	ldrb	r3, [r3, #24]
 80011fa:	4619      	mov	r1, r3
 80011fc:	4a13      	ldr	r2, [pc, #76]	@ (800124c <_SendPacket+0x2d8>)
 80011fe:	460b      	mov	r3, r1
 8001200:	005b      	lsls	r3, r3, #1
 8001202:	440b      	add	r3, r1
 8001204:	00db      	lsls	r3, r3, #3
 8001206:	4413      	add	r3, r2
 8001208:	336c      	adds	r3, #108	@ 0x6c
 800120a:	681a      	ldr	r2, [r3, #0]
 800120c:	4b0e      	ldr	r3, [pc, #56]	@ (8001248 <_SendPacket+0x2d4>)
 800120e:	7e1b      	ldrb	r3, [r3, #24]
 8001210:	4618      	mov	r0, r3
 8001212:	490e      	ldr	r1, [pc, #56]	@ (800124c <_SendPacket+0x2d8>)
 8001214:	4603      	mov	r3, r0
 8001216:	005b      	lsls	r3, r3, #1
 8001218:	4403      	add	r3, r0
 800121a:	00db      	lsls	r3, r3, #3
 800121c:	440b      	add	r3, r1
 800121e:	3370      	adds	r3, #112	@ 0x70
 8001220:	681b      	ldr	r3, [r3, #0]
 8001222:	429a      	cmp	r2, r3
 8001224:	d00b      	beq.n	800123e <_SendPacket+0x2ca>
    if (_SYSVIEW_Globals.RecursionCnt == 0) {   // Avoid uncontrolled nesting. This way, this routine can call itself once, but no more often than that.
 8001226:	4b08      	ldr	r3, [pc, #32]	@ (8001248 <_SendPacket+0x2d4>)
 8001228:	789b      	ldrb	r3, [r3, #2]
 800122a:	2b00      	cmp	r3, #0
 800122c:	d107      	bne.n	800123e <_SendPacket+0x2ca>
      _SYSVIEW_Globals.RecursionCnt = 1;
 800122e:	4b06      	ldr	r3, [pc, #24]	@ (8001248 <_SendPacket+0x2d4>)
 8001230:	2201      	movs	r2, #1
 8001232:	709a      	strb	r2, [r3, #2]
      _HandleIncomingPacket();
 8001234:	f7ff fdbe 	bl	8000db4 <_HandleIncomingPacket>
      _SYSVIEW_Globals.RecursionCnt = 0;
 8001238:	4b03      	ldr	r3, [pc, #12]	@ (8001248 <_SendPacket+0x2d4>)
 800123a:	2200      	movs	r2, #0
 800123c:	709a      	strb	r2, [r3, #2]
#endif
  //
#if (SEGGER_SYSVIEW_USE_STATIC_BUFFER == 0)
  SEGGER_SYSVIEW_UNLOCK();  // We are done. Unlock and return
#endif
}
 800123e:	bf00      	nop
 8001240:	3728      	adds	r7, #40	@ 0x28
 8001242:	46bd      	mov	sp, r7
 8001244:	bd80      	pop	{r7, pc}
 8001246:	bf00      	nop
 8001248:	200015f0 	.word	0x200015f0
 800124c:	20000130 	.word	0x20000130

08001250 <SEGGER_SYSVIEW_Init>:
*    The channel is assigned the label "SysView" for client software
*    to identify the SystemView channel.
*
*    The channel is configured with the macro SEGGER_SYSVIEW_RTT_CHANNEL.
*/
void SEGGER_SYSVIEW_Init(U32 SysFreq, U32 CPUFreq, const SEGGER_SYSVIEW_OS_API *pOSAPI, SEGGER_SYSVIEW_SEND_SYS_DESC_FUNC pfSendSysDesc) {
 8001250:	b580      	push	{r7, lr}
 8001252:	b086      	sub	sp, #24
 8001254:	af02      	add	r7, sp, #8
 8001256:	60f8      	str	r0, [r7, #12]
 8001258:	60b9      	str	r1, [r7, #8]
 800125a:	607a      	str	r2, [r7, #4]
 800125c:	603b      	str	r3, [r7, #0]
#else // (SEGGER_SYSVIEW_POST_MORTEM_MODE == 1)
#if SEGGER_SYSVIEW_RTT_CHANNEL > 0
  SEGGER_RTT_ConfigUpBuffer   (SEGGER_SYSVIEW_RTT_CHANNEL, "SysView", &_UpBuffer[0],   sizeof(_UpBuffer),   SEGGER_RTT_MODE_NO_BLOCK_SKIP);
  SEGGER_RTT_ConfigDownBuffer (SEGGER_SYSVIEW_RTT_CHANNEL, "SysView", &_DownBuffer[0], sizeof(_DownBuffer), SEGGER_RTT_MODE_NO_BLOCK_SKIP);
#else
  _SYSVIEW_Globals.UpChannel = (U8)SEGGER_RTT_AllocUpBuffer  ("SysView", &_UpBuffer[0],   sizeof(_UpBuffer),   SEGGER_RTT_MODE_NO_BLOCK_SKIP);
 800125e:	2300      	movs	r3, #0
 8001260:	f44f 5280 	mov.w	r2, #4096	@ 0x1000
 8001264:	4917      	ldr	r1, [pc, #92]	@ (80012c4 <SEGGER_SYSVIEW_Init+0x74>)
 8001266:	4818      	ldr	r0, [pc, #96]	@ (80012c8 <SEGGER_SYSVIEW_Init+0x78>)
 8001268:	f7ff fc8e 	bl	8000b88 <SEGGER_RTT_AllocUpBuffer>
 800126c:	4603      	mov	r3, r0
 800126e:	b2da      	uxtb	r2, r3
 8001270:	4b16      	ldr	r3, [pc, #88]	@ (80012cc <SEGGER_SYSVIEW_Init+0x7c>)
 8001272:	705a      	strb	r2, [r3, #1]
  _SYSVIEW_Globals.DownChannel = _SYSVIEW_Globals.UpChannel;
 8001274:	4b15      	ldr	r3, [pc, #84]	@ (80012cc <SEGGER_SYSVIEW_Init+0x7c>)
 8001276:	785a      	ldrb	r2, [r3, #1]
 8001278:	4b14      	ldr	r3, [pc, #80]	@ (80012cc <SEGGER_SYSVIEW_Init+0x7c>)
 800127a:	761a      	strb	r2, [r3, #24]
  SEGGER_RTT_ConfigDownBuffer (_SYSVIEW_Globals.DownChannel, "SysView", &_DownBuffer[0], sizeof(_DownBuffer), SEGGER_RTT_MODE_NO_BLOCK_SKIP);
 800127c:	4b13      	ldr	r3, [pc, #76]	@ (80012cc <SEGGER_SYSVIEW_Init+0x7c>)
 800127e:	7e1b      	ldrb	r3, [r3, #24]
 8001280:	4618      	mov	r0, r3
 8001282:	2300      	movs	r3, #0
 8001284:	9300      	str	r3, [sp, #0]
 8001286:	2308      	movs	r3, #8
 8001288:	4a11      	ldr	r2, [pc, #68]	@ (80012d0 <SEGGER_SYSVIEW_Init+0x80>)
 800128a:	490f      	ldr	r1, [pc, #60]	@ (80012c8 <SEGGER_SYSVIEW_Init+0x78>)
 800128c:	f7ff fd00 	bl	8000c90 <SEGGER_RTT_ConfigDownBuffer>
#endif
  _SYSVIEW_Globals.RAMBaseAddress   = SEGGER_SYSVIEW_ID_BASE;
 8001290:	4b0e      	ldr	r3, [pc, #56]	@ (80012cc <SEGGER_SYSVIEW_Init+0x7c>)
 8001292:	2200      	movs	r2, #0
 8001294:	611a      	str	r2, [r3, #16]
  _SYSVIEW_Globals.LastTxTimeStamp  = SEGGER_SYSVIEW_GET_TIMESTAMP();
 8001296:	4b0f      	ldr	r3, [pc, #60]	@ (80012d4 <SEGGER_SYSVIEW_Init+0x84>)
 8001298:	681b      	ldr	r3, [r3, #0]
 800129a:	4a0c      	ldr	r2, [pc, #48]	@ (80012cc <SEGGER_SYSVIEW_Init+0x7c>)
 800129c:	60d3      	str	r3, [r2, #12]
  _SYSVIEW_Globals.pOSAPI           = pOSAPI;
 800129e:	4a0b      	ldr	r2, [pc, #44]	@ (80012cc <SEGGER_SYSVIEW_Init+0x7c>)
 80012a0:	687b      	ldr	r3, [r7, #4]
 80012a2:	6213      	str	r3, [r2, #32]
  _SYSVIEW_Globals.SysFreq          = SysFreq;
 80012a4:	4a09      	ldr	r2, [pc, #36]	@ (80012cc <SEGGER_SYSVIEW_Init+0x7c>)
 80012a6:	68fb      	ldr	r3, [r7, #12]
 80012a8:	6053      	str	r3, [r2, #4]
  _SYSVIEW_Globals.CPUFreq          = CPUFreq;
 80012aa:	4a08      	ldr	r2, [pc, #32]	@ (80012cc <SEGGER_SYSVIEW_Init+0x7c>)
 80012ac:	68bb      	ldr	r3, [r7, #8]
 80012ae:	6093      	str	r3, [r2, #8]
  _SYSVIEW_Globals.pfSendSysDesc    = pfSendSysDesc;
 80012b0:	4a06      	ldr	r2, [pc, #24]	@ (80012cc <SEGGER_SYSVIEW_Init+0x7c>)
 80012b2:	683b      	ldr	r3, [r7, #0]
 80012b4:	6253      	str	r3, [r2, #36]	@ 0x24
  _SYSVIEW_Globals.EnableState      = 0;
 80012b6:	4b05      	ldr	r3, [pc, #20]	@ (80012cc <SEGGER_SYSVIEW_Init+0x7c>)
 80012b8:	2200      	movs	r2, #0
 80012ba:	701a      	strb	r2, [r3, #0]
#endif  // (SEGGER_SYSVIEW_POST_MORTEM_MODE == 1)
}
 80012bc:	bf00      	nop
 80012be:	3710      	adds	r7, #16
 80012c0:	46bd      	mov	sp, r7
 80012c2:	bd80      	pop	{r7, pc}
 80012c4:	200005e8 	.word	0x200005e8
 80012c8:	08004328 	.word	0x08004328
 80012cc:	200015f0 	.word	0x200015f0
 80012d0:	200015e8 	.word	0x200015e8
 80012d4:	e0001004 	.word	0xe0001004

080012d8 <SEGGER_SYSVIEW_SetRAMBase>:
*     to save bandwidth.
*
*  Parameters
*    RAMBaseAddress - Lowest RAM Address. (i.e. 0x20000000 on most Cortex-M)
*/
void SEGGER_SYSVIEW_SetRAMBase(U32 RAMBaseAddress) {
 80012d8:	b480      	push	{r7}
 80012da:	b083      	sub	sp, #12
 80012dc:	af00      	add	r7, sp, #0
 80012de:	6078      	str	r0, [r7, #4]
  _SYSVIEW_Globals.RAMBaseAddress = RAMBaseAddress;
 80012e0:	4a04      	ldr	r2, [pc, #16]	@ (80012f4 <SEGGER_SYSVIEW_SetRAMBase+0x1c>)
 80012e2:	687b      	ldr	r3, [r7, #4]
 80012e4:	6113      	str	r3, [r2, #16]
}
 80012e6:	bf00      	nop
 80012e8:	370c      	adds	r7, #12
 80012ea:	46bd      	mov	sp, r7
 80012ec:	f85d 7b04 	ldr.w	r7, [sp], #4
 80012f0:	4770      	bx	lr
 80012f2:	bf00      	nop
 80012f4:	200015f0 	.word	0x200015f0

080012f8 <SEGGER_SYSVIEW_RecordVoid>:
*    Formats and sends a SystemView packet with an empty payload.
*
*  Parameters
*    EventID - SystemView event ID.
*/
void SEGGER_SYSVIEW_RecordVoid(unsigned int EventID) {
 80012f8:	b580      	push	{r7, lr}
 80012fa:	b084      	sub	sp, #16
 80012fc:	af00      	add	r7, sp, #0
 80012fe:	6078      	str	r0, [r7, #4]
  U8* pPayloadStart;
  RECORD_START(SEGGER_SYSVIEW_INFO_SIZE);
 8001300:	f3ef 8311 	mrs	r3, BASEPRI
 8001304:	f04f 0120 	mov.w	r1, #32
 8001308:	f381 8811 	msr	BASEPRI, r1
 800130c:	60fb      	str	r3, [r7, #12]
 800130e:	4808      	ldr	r0, [pc, #32]	@ (8001330 <SEGGER_SYSVIEW_RecordVoid+0x38>)
 8001310:	f7ff fd43 	bl	8000d9a <_PreparePacket>
 8001314:	60b8      	str	r0, [r7, #8]
  //
  _SendPacket(pPayloadStart, pPayloadStart, EventID);
 8001316:	687a      	ldr	r2, [r7, #4]
 8001318:	68b9      	ldr	r1, [r7, #8]
 800131a:	68b8      	ldr	r0, [r7, #8]
 800131c:	f7ff fe2a 	bl	8000f74 <_SendPacket>
  RECORD_END();
 8001320:	68fb      	ldr	r3, [r7, #12]
 8001322:	f383 8811 	msr	BASEPRI, r3
}
 8001326:	bf00      	nop
 8001328:	3710      	adds	r7, #16
 800132a:	46bd      	mov	sp, r7
 800132c:	bd80      	pop	{r7, pc}
 800132e:	bf00      	nop
 8001330:	20001620 	.word	0x20001620

08001334 <SEGGER_SYSVIEW_RecordU32>:
*
*  Parameters
*    EventID - SystemView event ID.
*    Value   - The 32-bit parameter encoded to SystemView packet payload.
*/
void SEGGER_SYSVIEW_RecordU32(unsigned int EventID, U32 Value) {
 8001334:	b580      	push	{r7, lr}
 8001336:	b088      	sub	sp, #32
 8001338:	af00      	add	r7, sp, #0
 800133a:	6078      	str	r0, [r7, #4]
 800133c:	6039      	str	r1, [r7, #0]
  U8* pPayload;
  U8* pPayloadStart;
  RECORD_START(SEGGER_SYSVIEW_INFO_SIZE + SEGGER_SYSVIEW_QUANTA_U32);
 800133e:	f3ef 8311 	mrs	r3, BASEPRI
 8001342:	f04f 0120 	mov.w	r1, #32
 8001346:	f381 8811 	msr	BASEPRI, r1
 800134a:	617b      	str	r3, [r7, #20]
 800134c:	4816      	ldr	r0, [pc, #88]	@ (80013a8 <SEGGER_SYSVIEW_RecordU32+0x74>)
 800134e:	f7ff fd24 	bl	8000d9a <_PreparePacket>
 8001352:	6138      	str	r0, [r7, #16]
  //
  pPayload = pPayloadStart;
 8001354:	693b      	ldr	r3, [r7, #16]
 8001356:	60fb      	str	r3, [r7, #12]
  ENCODE_U32(pPayload, Value);
 8001358:	68fb      	ldr	r3, [r7, #12]
 800135a:	61fb      	str	r3, [r7, #28]
 800135c:	683b      	ldr	r3, [r7, #0]
 800135e:	61bb      	str	r3, [r7, #24]
 8001360:	e00b      	b.n	800137a <SEGGER_SYSVIEW_RecordU32+0x46>
 8001362:	69bb      	ldr	r3, [r7, #24]
 8001364:	b2da      	uxtb	r2, r3
 8001366:	69fb      	ldr	r3, [r7, #28]
 8001368:	1c59      	adds	r1, r3, #1
 800136a:	61f9      	str	r1, [r7, #28]
 800136c:	f062 027f 	orn	r2, r2, #127	@ 0x7f
 8001370:	b2d2      	uxtb	r2, r2
 8001372:	701a      	strb	r2, [r3, #0]
 8001374:	69bb      	ldr	r3, [r7, #24]
 8001376:	09db      	lsrs	r3, r3, #7
 8001378:	61bb      	str	r3, [r7, #24]
 800137a:	69bb      	ldr	r3, [r7, #24]
 800137c:	2b7f      	cmp	r3, #127	@ 0x7f
 800137e:	d8f0      	bhi.n	8001362 <SEGGER_SYSVIEW_RecordU32+0x2e>
 8001380:	69fb      	ldr	r3, [r7, #28]
 8001382:	1c5a      	adds	r2, r3, #1
 8001384:	61fa      	str	r2, [r7, #28]
 8001386:	69ba      	ldr	r2, [r7, #24]
 8001388:	b2d2      	uxtb	r2, r2
 800138a:	701a      	strb	r2, [r3, #0]
 800138c:	69fb      	ldr	r3, [r7, #28]
 800138e:	60fb      	str	r3, [r7, #12]
  _SendPacket(pPayloadStart, pPayload, EventID);
 8001390:	687a      	ldr	r2, [r7, #4]
 8001392:	68f9      	ldr	r1, [r7, #12]
 8001394:	6938      	ldr	r0, [r7, #16]
 8001396:	f7ff fded 	bl	8000f74 <_SendPacket>
  RECORD_END();
 800139a:	697b      	ldr	r3, [r7, #20]
 800139c:	f383 8811 	msr	BASEPRI, r3
}
 80013a0:	bf00      	nop
 80013a2:	3720      	adds	r7, #32
 80013a4:	46bd      	mov	sp, r7
 80013a6:	bd80      	pop	{r7, pc}
 80013a8:	20001620 	.word	0x20001620

080013ac <SEGGER_SYSVIEW_RecordU32x2>:
*  Parameters
*    EventID - SystemView event ID.
*    Para0   - The 32-bit parameter encoded to SystemView packet payload.
*    Para1   - The 32-bit parameter encoded to SystemView packet payload.
*/
void SEGGER_SYSVIEW_RecordU32x2(unsigned int EventID, U32 Para0, U32 Para1) {
 80013ac:	b580      	push	{r7, lr}
 80013ae:	b08c      	sub	sp, #48	@ 0x30
 80013b0:	af00      	add	r7, sp, #0
 80013b2:	60f8      	str	r0, [r7, #12]
 80013b4:	60b9      	str	r1, [r7, #8]
 80013b6:	607a      	str	r2, [r7, #4]
  U8* pPayload;
  U8* pPayloadStart;
  RECORD_START(SEGGER_SYSVIEW_INFO_SIZE + 2 * SEGGER_SYSVIEW_QUANTA_U32);
 80013b8:	f3ef 8311 	mrs	r3, BASEPRI
 80013bc:	f04f 0120 	mov.w	r1, #32
 80013c0:	f381 8811 	msr	BASEPRI, r1
 80013c4:	61fb      	str	r3, [r7, #28]
 80013c6:	4825      	ldr	r0, [pc, #148]	@ (800145c <SEGGER_SYSVIEW_RecordU32x2+0xb0>)
 80013c8:	f7ff fce7 	bl	8000d9a <_PreparePacket>
 80013cc:	61b8      	str	r0, [r7, #24]
  //
  pPayload = pPayloadStart;
 80013ce:	69bb      	ldr	r3, [r7, #24]
 80013d0:	617b      	str	r3, [r7, #20]
  ENCODE_U32(pPayload, Para0);
 80013d2:	697b      	ldr	r3, [r7, #20]
 80013d4:	62fb      	str	r3, [r7, #44]	@ 0x2c
 80013d6:	68bb      	ldr	r3, [r7, #8]
 80013d8:	62bb      	str	r3, [r7, #40]	@ 0x28
 80013da:	e00b      	b.n	80013f4 <SEGGER_SYSVIEW_RecordU32x2+0x48>
 80013dc:	6abb      	ldr	r3, [r7, #40]	@ 0x28
 80013de:	b2da      	uxtb	r2, r3
 80013e0:	6afb      	ldr	r3, [r7, #44]	@ 0x2c
 80013e2:	1c59      	adds	r1, r3, #1
 80013e4:	62f9      	str	r1, [r7, #44]	@ 0x2c
 80013e6:	f062 027f 	orn	r2, r2, #127	@ 0x7f
 80013ea:	b2d2      	uxtb	r2, r2
 80013ec:	701a      	strb	r2, [r3, #0]
 80013ee:	6abb      	ldr	r3, [r7, #40]	@ 0x28
 80013f0:	09db      	lsrs	r3, r3, #7
 80013f2:	62bb      	str	r3, [r7, #40]	@ 0x28
 80013f4:	6abb      	ldr	r3, [r7, #40]	@ 0x28
 80013f6:	2b7f      	cmp	r3, #127	@ 0x7f
 80013f8:	d8f0      	bhi.n	80013dc <SEGGER_SYSVIEW_RecordU32x2+0x30>
 80013fa:	6afb      	ldr	r3, [r7, #44]	@ 0x2c
 80013fc:	1c5a      	adds	r2, r3, #1
 80013fe:	62fa      	str	r2, [r7, #44]	@ 0x2c
 8001400:	6aba      	ldr	r2, [r7, #40]	@ 0x28
 8001402:	b2d2      	uxtb	r2, r2
 8001404:	701a      	strb	r2, [r3, #0]
 8001406:	6afb      	ldr	r3, [r7, #44]	@ 0x2c
 8001408:	617b      	str	r3, [r7, #20]
  ENCODE_U32(pPayload, Para1);
 800140a:	697b      	ldr	r3, [r7, #20]
 800140c:	627b      	str	r3, [r7, #36]	@ 0x24
 800140e:	687b      	ldr	r3, [r7, #4]
 8001410:	623b      	str	r3, [r7, #32]
 8001412:	e00b      	b.n	800142c <SEGGER_SYSVIEW_RecordU32x2+0x80>
 8001414:	6a3b      	ldr	r3, [r7, #32]
 8001416:	b2da      	uxtb	r2, r3
 8001418:	6a7b      	ldr	r3, [r7, #36]	@ 0x24
 800141a:	1c59      	adds	r1, r3, #1
 800141c:	6279      	str	r1, [r7, #36]	@ 0x24
 800141e:	f062 027f 	orn	r2, r2, #127	@ 0x7f
 8001422:	b2d2      	uxtb	r2, r2
 8001424:	701a      	strb	r2, [r3, #0]
 8001426:	6a3b      	ldr	r3, [r7, #32]
 8001428:	09db      	lsrs	r3, r3, #7
 800142a:	623b      	str	r3, [r7, #32]
 800142c:	6a3b      	ldr	r3, [r7, #32]
 800142e:	2b7f      	cmp	r3, #127	@ 0x7f
 8001430:	d8f0      	bhi.n	8001414 <SEGGER_SYSVIEW_RecordU32x2+0x68>
 8001432:	6a7b      	ldr	r3, [r7, #36]	@ 0x24
 8001434:	1c5a      	adds	r2, r3, #1
 8001436:	627a      	str	r2, [r7, #36]	@ 0x24
 8001438:	6a3a      	ldr	r2, [r7, #32]
 800143a:	b2d2      	uxtb	r2, r2
 800143c:	701a      	strb	r2, [r3, #0]
 800143e:	6a7b      	ldr	r3, [r7, #36]	@ 0x24
 8001440:	617b      	str	r3, [r7, #20]
  _SendPacket(pPayloadStart, pPayload, EventID);
 8001442:	68fa      	ldr	r2, [r7, #12]
 8001444:	6979      	ldr	r1, [r7, #20]
 8001446:	69b8      	ldr	r0, [r7, #24]
 8001448:	f7ff fd94 	bl	8000f74 <_SendPacket>
  RECORD_END();
 800144c:	69fb      	ldr	r3, [r7, #28]
 800144e:	f383 8811 	msr	BASEPRI, r3
}
 8001452:	bf00      	nop
 8001454:	3730      	adds	r7, #48	@ 0x30
 8001456:	46bd      	mov	sp, r7
 8001458:	bd80      	pop	{r7, pc}
 800145a:	bf00      	nop
 800145c:	20001620 	.word	0x20001620

08001460 <SEGGER_SYSVIEW_RecordU32x6>:
*    Para2   - The 32-bit parameter encoded to SystemView packet payload.
*    Para3   - The 32-bit parameter encoded to SystemView packet payload.
*    Para4   - The 32-bit parameter encoded to SystemView packet payload.
*    Para5   - The 32-bit parameter encoded to SystemView packet payload.
*/
void SEGGER_SYSVIEW_RecordU32x6(unsigned int EventID, U32 Para0, U32 Para1, U32 Para2, U32 Para3, U32 Para4, U32 Para5) {
 8001460:	b580      	push	{r7, lr}
 8001462:	b094      	sub	sp, #80	@ 0x50
 8001464:	af00      	add	r7, sp, #0
 8001466:	60f8      	str	r0, [r7, #12]
 8001468:	60b9      	str	r1, [r7, #8]
 800146a:	607a      	str	r2, [r7, #4]
 800146c:	603b      	str	r3, [r7, #0]
  U8* pPayload;
  U8* pPayloadStart;
  RECORD_START(SEGGER_SYSVIEW_INFO_SIZE + 6 * SEGGER_SYSVIEW_QUANTA_U32);
 800146e:	f3ef 8311 	mrs	r3, BASEPRI
 8001472:	f04f 0120 	mov.w	r1, #32
 8001476:	f381 8811 	msr	BASEPRI, r1
 800147a:	61fb      	str	r3, [r7, #28]
 800147c:	485c      	ldr	r0, [pc, #368]	@ (80015f0 <SEGGER_SYSVIEW_RecordU32x6+0x190>)
 800147e:	f7ff fc8c 	bl	8000d9a <_PreparePacket>
 8001482:	61b8      	str	r0, [r7, #24]
  //
  pPayload = pPayloadStart;
 8001484:	69bb      	ldr	r3, [r7, #24]
 8001486:	617b      	str	r3, [r7, #20]
  ENCODE_U32(pPayload, Para0);
 8001488:	697b      	ldr	r3, [r7, #20]
 800148a:	64fb      	str	r3, [r7, #76]	@ 0x4c
 800148c:	68bb      	ldr	r3, [r7, #8]
 800148e:	64bb      	str	r3, [r7, #72]	@ 0x48
 8001490:	e00b      	b.n	80014aa <SEGGER_SYSVIEW_RecordU32x6+0x4a>
 8001492:	6cbb      	ldr	r3, [r7, #72]	@ 0x48
 8001494:	b2da      	uxtb	r2, r3
 8001496:	6cfb      	ldr	r3, [r7, #76]	@ 0x4c
 8001498:	1c59      	adds	r1, r3, #1
 800149a:	64f9      	str	r1, [r7, #76]	@ 0x4c
 800149c:	f062 027f 	orn	r2, r2, #127	@ 0x7f
 80014a0:	b2d2      	uxtb	r2, r2
 80014a2:	701a      	strb	r2, [r3, #0]
 80014a4:	6cbb      	ldr	r3, [r7, #72]	@ 0x48
 80014a6:	09db      	lsrs	r3, r3, #7
 80014a8:	64bb      	str	r3, [r7, #72]	@ 0x48
 80014aa:	6cbb      	ldr	r3, [r7, #72]	@ 0x48
 80014ac:	2b7f      	cmp	r3, #127	@ 0x7f
 80014ae:	d8f0      	bhi.n	8001492 <SEGGER_SYSVIEW_RecordU32x6+0x32>
 80014b0:	6cfb      	ldr	r3, [r7, #76]	@ 0x4c
 80014b2:	1c5a      	adds	r2, r3, #1
 80014b4:	64fa      	str	r2, [r7, #76]	@ 0x4c
 80014b6:	6cba      	ldr	r2, [r7, #72]	@ 0x48
 80014b8:	b2d2      	uxtb	r2, r2
 80014ba:	701a      	strb	r2, [r3, #0]
 80014bc:	6cfb      	ldr	r3, [r7, #76]	@ 0x4c
 80014be:	617b      	str	r3, [r7, #20]
  ENCODE_U32(pPayload, Para1);
 80014c0:	697b      	ldr	r3, [r7, #20]
 80014c2:	647b      	str	r3, [r7, #68]	@ 0x44
 80014c4:	687b      	ldr	r3, [r7, #4]
 80014c6:	643b      	str	r3, [r7, #64]	@ 0x40
 80014c8:	e00b      	b.n	80014e2 <SEGGER_SYSVIEW_RecordU32x6+0x82>
 80014ca:	6c3b      	ldr	r3, [r7, #64]	@ 0x40
 80014cc:	b2da      	uxtb	r2, r3
 80014ce:	6c7b      	ldr	r3, [r7, #68]	@ 0x44
 80014d0:	1c59      	adds	r1, r3, #1
 80014d2:	6479      	str	r1, [r7, #68]	@ 0x44
 80014d4:	f062 027f 	orn	r2, r2, #127	@ 0x7f
 80014d8:	b2d2      	uxtb	r2, r2
 80014da:	701a      	strb	r2, [r3, #0]
 80014dc:	6c3b      	ldr	r3, [r7, #64]	@ 0x40
 80014de:	09db      	lsrs	r3, r3, #7
 80014e0:	643b      	str	r3, [r7, #64]	@ 0x40
 80014e2:	6c3b      	ldr	r3, [r7, #64]	@ 0x40
 80014e4:	2b7f      	cmp	r3, #127	@ 0x7f
 80014e6:	d8f0      	bhi.n	80014ca <SEGGER_SYSVIEW_RecordU32x6+0x6a>
 80014e8:	6c7b      	ldr	r3, [r7, #68]	@ 0x44
 80014ea:	1c5a      	adds	r2, r3, #1
 80014ec:	647a      	str	r2, [r7, #68]	@ 0x44
 80014ee:	6c3a      	ldr	r2, [r7, #64]	@ 0x40
 80014f0:	b2d2      	uxtb	r2, r2
 80014f2:	701a      	strb	r2, [r3, #0]
 80014f4:	6c7b      	ldr	r3, [r7, #68]	@ 0x44
 80014f6:	617b      	str	r3, [r7, #20]
  ENCODE_U32(pPayload, Para2);
 80014f8:	697b      	ldr	r3, [r7, #20]
 80014fa:	63fb      	str	r3, [r7, #60]	@ 0x3c
 80014fc:	683b      	ldr	r3, [r7, #0]
 80014fe:	63bb      	str	r3, [r7, #56]	@ 0x38
 8001500:	e00b      	b.n	800151a <SEGGER_SYSVIEW_RecordU32x6+0xba>
 8001502:	6bbb      	ldr	r3, [r7, #56]	@ 0x38
 8001504:	b2da      	uxtb	r2, r3
 8001506:	6bfb      	ldr	r3, [r7, #60]	@ 0x3c
 8001508:	1c59      	adds	r1, r3, #1
 800150a:	63f9      	str	r1, [r7, #60]	@ 0x3c
 800150c:	f062 027f 	orn	r2, r2, #127	@ 0x7f
 8001510:	b2d2      	uxtb	r2, r2
 8001512:	701a      	strb	r2, [r3, #0]
 8001514:	6bbb      	ldr	r3, [r7, #56]	@ 0x38
 8001516:	09db      	lsrs	r3, r3, #7
 8001518:	63bb      	str	r3, [r7, #56]	@ 0x38
 800151a:	6bbb      	ldr	r3, [r7, #56]	@ 0x38
 800151c:	2b7f      	cmp	r3, #127	@ 0x7f
 800151e:	d8f0      	bhi.n	8001502 <SEGGER_SYSVIEW_RecordU32x6+0xa2>
 8001520:	6bfb      	ldr	r3, [r7, #60]	@ 0x3c
 8001522:	1c5a      	adds	r2, r3, #1
 8001524:	63fa      	str	r2, [r7, #60]	@ 0x3c
 8001526:	6bba      	ldr	r2, [r7, #56]	@ 0x38
 8001528:	b2d2      	uxtb	r2, r2
 800152a:	701a      	strb	r2, [r3, #0]
 800152c:	6bfb      	ldr	r3, [r7, #60]	@ 0x3c
 800152e:	617b      	str	r3, [r7, #20]
  ENCODE_U32(pPayload, Para3);
 8001530:	697b      	ldr	r3, [r7, #20]
 8001532:	637b      	str	r3, [r7, #52]	@ 0x34
 8001534:	6dbb      	ldr	r3, [r7, #88]	@ 0x58
 8001536:	633b      	str	r3, [r7, #48]	@ 0x30
 8001538:	e00b      	b.n	8001552 <SEGGER_SYSVIEW_RecordU32x6+0xf2>
 800153a:	6b3b      	ldr	r3, [r7, #48]	@ 0x30
 800153c:	b2da      	uxtb	r2, r3
 800153e:	6b7b      	ldr	r3, [r7, #52]	@ 0x34
 8001540:	1c59      	adds	r1, r3, #1
 8001542:	6379      	str	r1, [r7, #52]	@ 0x34
 8001544:	f062 027f 	orn	r2, r2, #127	@ 0x7f
 8001548:	b2d2      	uxtb	r2, r2
 800154a:	701a      	strb	r2, [r3, #0]
 800154c:	6b3b      	ldr	r3, [r7, #48]	@ 0x30
 800154e:	09db      	lsrs	r3, r3, #7
 8001550:	633b      	str	r3, [r7, #48]	@ 0x30
 8001552:	6b3b      	ldr	r3, [r7, #48]	@ 0x30
 8001554:	2b7f      	cmp	r3, #127	@ 0x7f
 8001556:	d8f0      	bhi.n	800153a <SEGGER_SYSVIEW_RecordU32x6+0xda>
 8001558:	6b7b      	ldr	r3, [r7, #52]	@ 0x34
 800155a:	1c5a      	adds	r2, r3, #1
 800155c:	637a      	str	r2, [r7, #52]	@ 0x34
 800155e:	6b3a      	ldr	r2, [r7, #48]	@ 0x30
 8001560:	b2d2      	uxtb	r2, r2
 8001562:	701a      	strb	r2, [r3, #0]
 8001564:	6b7b      	ldr	r3, [r7, #52]	@ 0x34
 8001566:	617b      	str	r3, [r7, #20]
  ENCODE_U32(pPayload, Para4);
 8001568:	697b      	ldr	r3, [r7, #20]
 800156a:	62fb      	str	r3, [r7, #44]	@ 0x2c
 800156c:	6dfb      	ldr	r3, [r7, #92]	@ 0x5c
 800156e:	62bb      	str	r3, [r7, #40]	@ 0x28
 8001570:	e00b      	b.n	800158a <SEGGER_SYSVIEW_RecordU32x6+0x12a>
 8001572:	6abb      	ldr	r3, [r7, #40]	@ 0x28
 8001574:	b2da      	uxtb	r2, r3
 8001576:	6afb      	ldr	r3, [r7, #44]	@ 0x2c
 8001578:	1c59      	adds	r1, r3, #1
 800157a:	62f9      	str	r1, [r7, #44]	@ 0x2c
 800157c:	f062 027f 	orn	r2, r2, #127	@ 0x7f
 8001580:	b2d2      	uxtb	r2, r2
 8001582:	701a      	strb	r2, [r3, #0]
 8001584:	6abb      	ldr	r3, [r7, #40]	@ 0x28
 8001586:	09db      	lsrs	r3, r3, #7
 8001588:	62bb      	str	r3, [r7, #40]	@ 0x28
 800158a:	6abb      	ldr	r3, [r7, #40]	@ 0x28
 800158c:	2b7f      	cmp	r3, #127	@ 0x7f
 800158e:	d8f0      	bhi.n	8001572 <SEGGER_SYSVIEW_RecordU32x6+0x112>
 8001590:	6afb      	ldr	r3, [r7, #44]	@ 0x2c
 8001592:	1c5a      	adds	r2, r3, #1
 8001594:	62fa      	str	r2, [r7, #44]	@ 0x2c
 8001596:	6aba      	ldr	r2, [r7, #40]	@ 0x28
 8001598:	b2d2      	uxtb	r2, r2
 800159a:	701a      	strb	r2, [r3, #0]
 800159c:	6afb      	ldr	r3, [r7, #44]	@ 0x2c
 800159e:	617b      	str	r3, [r7, #20]
  ENCODE_U32(pPayload, Para5);
 80015a0:	697b      	ldr	r3, [r7, #20]
 80015a2:	627b      	str	r3, [r7, #36]	@ 0x24
 80015a4:	6e3b      	ldr	r3, [r7, #96]	@ 0x60
 80015a6:	623b      	str	r3, [r7, #32]
 80015a8:	e00b      	b.n	80015c2 <SEGGER_SYSVIEW_RecordU32x6+0x162>
 80015aa:	6a3b      	ldr	r3, [r7, #32]
 80015ac:	b2da      	uxtb	r2, r3
 80015ae:	6a7b      	ldr	r3, [r7, #36]	@ 0x24
 80015b0:	1c59      	adds	r1, r3, #1
 80015b2:	6279      	str	r1, [r7, #36]	@ 0x24
 80015b4:	f062 027f 	orn	r2, r2, #127	@ 0x7f
 80015b8:	b2d2      	uxtb	r2, r2
 80015ba:	701a      	strb	r2, [r3, #0]
 80015bc:	6a3b      	ldr	r3, [r7, #32]
 80015be:	09db      	lsrs	r3, r3, #7
 80015c0:	623b      	str	r3, [r7, #32]
 80015c2:	6a3b      	ldr	r3, [r7, #32]
 80015c4:	2b7f      	cmp	r3, #127	@ 0x7f
 80015c6:	d8f0      	bhi.n	80015aa <SEGGER_SYSVIEW_RecordU32x6+0x14a>
 80015c8:	6a7b      	ldr	r3, [r7, #36]	@ 0x24
 80015ca:	1c5a      	adds	r2, r3, #1
 80015cc:	627a      	str	r2, [r7, #36]	@ 0x24
 80015ce:	6a3a      	ldr	r2, [r7, #32]
 80015d0:	b2d2      	uxtb	r2, r2
 80015d2:	701a      	strb	r2, [r3, #0]
 80015d4:	6a7b      	ldr	r3, [r7, #36]	@ 0x24
 80015d6:	617b      	str	r3, [r7, #20]
  _SendPacket(pPayloadStart, pPayload, EventID);
 80015d8:	68fa      	ldr	r2, [r7, #12]
 80015da:	6979      	ldr	r1, [r7, #20]
 80015dc:	69b8      	ldr	r0, [r7, #24]
 80015de:	f7ff fcc9 	bl	8000f74 <_SendPacket>
  RECORD_END();
 80015e2:	69fb      	ldr	r3, [r7, #28]
 80015e4:	f383 8811 	msr	BASEPRI, r3
}
 80015e8:	bf00      	nop
 80015ea:	3750      	adds	r7, #80	@ 0x50
 80015ec:	46bd      	mov	sp, r7
 80015ee:	bd80      	pop	{r7, pc}
 80015f0:	20001620 	.word	0x20001620

080015f4 <SEGGER_SYSVIEW_Start>:
*    When SEGGER_SYSVIEW_CAN_RESTART is 1, each received start command
*    records the system information. This is required to enable restart
*    of recordings when SystemView unexpectedly disconnects without sending
*    a stop command before.
*/
void SEGGER_SYSVIEW_Start(void) {
 80015f4:	b580      	push	{r7, lr}
 80015f6:	b08c      	sub	sp, #48	@ 0x30
 80015f8:	af00      	add	r7, sp, #0
#if (SEGGER_SYSVIEW_CAN_RESTART == 0)
  if (_SYSVIEW_Globals.EnableState == 0) {
#endif
    _SYSVIEW_Globals.EnableState = 1;
 80015fa:	4b58      	ldr	r3, [pc, #352]	@ (800175c <SEGGER_SYSVIEW_Start+0x168>)
 80015fc:	2201      	movs	r2, #1
 80015fe:	701a      	strb	r2, [r3, #0]
#if (SEGGER_SYSVIEW_POST_MORTEM_MODE == 1)
    _SendSyncInfo();
#else
    SEGGER_SYSVIEW_LOCK();
 8001600:	f3ef 8311 	mrs	r3, BASEPRI
 8001604:	f04f 0120 	mov.w	r1, #32
 8001608:	f381 8811 	msr	BASEPRI, r1
 800160c:	60fb      	str	r3, [r7, #12]
    SEGGER_RTT_WriteSkipNoLock(CHANNEL_ID_UP, _abSync, 10);
 800160e:	4b53      	ldr	r3, [pc, #332]	@ (800175c <SEGGER_SYSVIEW_Start+0x168>)
 8001610:	785b      	ldrb	r3, [r3, #1]
 8001612:	220a      	movs	r2, #10
 8001614:	4952      	ldr	r1, [pc, #328]	@ (8001760 <SEGGER_SYSVIEW_Start+0x16c>)
 8001616:	4618      	mov	r0, r3
 8001618:	f7fe fdfa 	bl	8000210 <SEGGER_RTT_ASM_WriteSkipNoLock>
    SEGGER_SYSVIEW_UNLOCK();
 800161c:	68fb      	ldr	r3, [r7, #12]
 800161e:	f383 8811 	msr	BASEPRI, r3
    SEGGER_SYSVIEW_ON_EVENT_RECORDED(10);
    SEGGER_SYSVIEW_RecordVoid(SYSVIEW_EVTID_TRACE_START);
 8001622:	200a      	movs	r0, #10
 8001624:	f7ff fe68 	bl	80012f8 <SEGGER_SYSVIEW_RecordVoid>
    {
      U8* pPayload;
      U8* pPayloadStart;
      RECORD_START(SEGGER_SYSVIEW_INFO_SIZE + 4 * SEGGER_SYSVIEW_QUANTA_U32);
 8001628:	f3ef 8311 	mrs	r3, BASEPRI
 800162c:	f04f 0120 	mov.w	r1, #32
 8001630:	f381 8811 	msr	BASEPRI, r1
 8001634:	60bb      	str	r3, [r7, #8]
 8001636:	484b      	ldr	r0, [pc, #300]	@ (8001764 <SEGGER_SYSVIEW_Start+0x170>)
 8001638:	f7ff fbaf 	bl	8000d9a <_PreparePacket>
 800163c:	6078      	str	r0, [r7, #4]
      //
      pPayload = pPayloadStart;
 800163e:	687b      	ldr	r3, [r7, #4]
 8001640:	603b      	str	r3, [r7, #0]
      ENCODE_U32(pPayload, _SYSVIEW_Globals.SysFreq);
 8001642:	683b      	ldr	r3, [r7, #0]
 8001644:	62fb      	str	r3, [r7, #44]	@ 0x2c
 8001646:	4b45      	ldr	r3, [pc, #276]	@ (800175c <SEGGER_SYSVIEW_Start+0x168>)
 8001648:	685b      	ldr	r3, [r3, #4]
 800164a:	62bb      	str	r3, [r7, #40]	@ 0x28
 800164c:	e00b      	b.n	8001666 <SEGGER_SYSVIEW_Start+0x72>
 800164e:	6abb      	ldr	r3, [r7, #40]	@ 0x28
 8001650:	b2da      	uxtb	r2, r3
 8001652:	6afb      	ldr	r3, [r7, #44]	@ 0x2c
 8001654:	1c59      	adds	r1, r3, #1
 8001656:	62f9      	str	r1, [r7, #44]	@ 0x2c
 8001658:	f062 027f 	orn	r2, r2, #127	@ 0x7f
 800165c:	b2d2      	uxtb	r2, r2
 800165e:	701a      	strb	r2, [r3, #0]
 8001660:	6abb      	ldr	r3, [r7, #40]	@ 0x28
 8001662:	09db      	lsrs	r3, r3, #7
 8001664:	62bb      	str	r3, [r7, #40]	@ 0x28
 8001666:	6abb      	ldr	r3, [r7, #40]	@ 0x28
 8001668:	2b7f      	cmp	r3, #127	@ 0x7f
 800166a:	d8f0      	bhi.n	800164e <SEGGER_SYSVIEW_Start+0x5a>
 800166c:	6afb      	ldr	r3, [r7, #44]	@ 0x2c
 800166e:	1c5a      	adds	r2, r3, #1
 8001670:	62fa      	str	r2, [r7, #44]	@ 0x2c
 8001672:	6aba      	ldr	r2, [r7, #40]	@ 0x28
 8001674:	b2d2      	uxtb	r2, r2
 8001676:	701a      	strb	r2, [r3, #0]
 8001678:	6afb      	ldr	r3, [r7, #44]	@ 0x2c
 800167a:	603b      	str	r3, [r7, #0]
      ENCODE_U32(pPayload, _SYSVIEW_Globals.CPUFreq);
 800167c:	683b      	ldr	r3, [r7, #0]
 800167e:	627b      	str	r3, [r7, #36]	@ 0x24
 8001680:	4b36      	ldr	r3, [pc, #216]	@ (800175c <SEGGER_SYSVIEW_Start+0x168>)
 8001682:	689b      	ldr	r3, [r3, #8]
 8001684:	623b      	str	r3, [r7, #32]
 8001686:	e00b      	b.n	80016a0 <SEGGER_SYSVIEW_Start+0xac>
 8001688:	6a3b      	ldr	r3, [r7, #32]
 800168a:	b2da      	uxtb	r2, r3
 800168c:	6a7b      	ldr	r3, [r7, #36]	@ 0x24
 800168e:	1c59      	adds	r1, r3, #1
 8001690:	6279      	str	r1, [r7, #36]	@ 0x24
 8001692:	f062 027f 	orn	r2, r2, #127	@ 0x7f
 8001696:	b2d2      	uxtb	r2, r2
 8001698:	701a      	strb	r2, [r3, #0]
 800169a:	6a3b      	ldr	r3, [r7, #32]
 800169c:	09db      	lsrs	r3, r3, #7
 800169e:	623b      	str	r3, [r7, #32]
 80016a0:	6a3b      	ldr	r3, [r7, #32]
 80016a2:	2b7f      	cmp	r3, #127	@ 0x7f
 80016a4:	d8f0      	bhi.n	8001688 <SEGGER_SYSVIEW_Start+0x94>
 80016a6:	6a7b      	ldr	r3, [r7, #36]	@ 0x24
 80016a8:	1c5a      	adds	r2, r3, #1
 80016aa:	627a      	str	r2, [r7, #36]	@ 0x24
 80016ac:	6a3a      	ldr	r2, [r7, #32]
 80016ae:	b2d2      	uxtb	r2, r2
 80016b0:	701a      	strb	r2, [r3, #0]
 80016b2:	6a7b      	ldr	r3, [r7, #36]	@ 0x24
 80016b4:	603b      	str	r3, [r7, #0]
      ENCODE_U32(pPayload, _SYSVIEW_Globals.RAMBaseAddress);
 80016b6:	683b      	ldr	r3, [r7, #0]
 80016b8:	61fb      	str	r3, [r7, #28]
 80016ba:	4b28      	ldr	r3, [pc, #160]	@ (800175c <SEGGER_SYSVIEW_Start+0x168>)
 80016bc:	691b      	ldr	r3, [r3, #16]
 80016be:	61bb      	str	r3, [r7, #24]
 80016c0:	e00b      	b.n	80016da <SEGGER_SYSVIEW_Start+0xe6>
 80016c2:	69bb      	ldr	r3, [r7, #24]
 80016c4:	b2da      	uxtb	r2, r3
 80016c6:	69fb      	ldr	r3, [r7, #28]
 80016c8:	1c59      	adds	r1, r3, #1
 80016ca:	61f9      	str	r1, [r7, #28]
 80016cc:	f062 027f 	orn	r2, r2, #127	@ 0x7f
 80016d0:	b2d2      	uxtb	r2, r2
 80016d2:	701a      	strb	r2, [r3, #0]
 80016d4:	69bb      	ldr	r3, [r7, #24]
 80016d6:	09db      	lsrs	r3, r3, #7
 80016d8:	61bb      	str	r3, [r7, #24]
 80016da:	69bb      	ldr	r3, [r7, #24]
 80016dc:	2b7f      	cmp	r3, #127	@ 0x7f
 80016de:	d8f0      	bhi.n	80016c2 <SEGGER_SYSVIEW_Start+0xce>
 80016e0:	69fb      	ldr	r3, [r7, #28]
 80016e2:	1c5a      	adds	r2, r3, #1
 80016e4:	61fa      	str	r2, [r7, #28]
 80016e6:	69ba      	ldr	r2, [r7, #24]
 80016e8:	b2d2      	uxtb	r2, r2
 80016ea:	701a      	strb	r2, [r3, #0]
 80016ec:	69fb      	ldr	r3, [r7, #28]
 80016ee:	603b      	str	r3, [r7, #0]
      ENCODE_U32(pPayload, SEGGER_SYSVIEW_ID_SHIFT);
 80016f0:	683b      	ldr	r3, [r7, #0]
 80016f2:	617b      	str	r3, [r7, #20]
 80016f4:	2300      	movs	r3, #0
 80016f6:	613b      	str	r3, [r7, #16]
 80016f8:	e00b      	b.n	8001712 <SEGGER_SYSVIEW_Start+0x11e>
 80016fa:	693b      	ldr	r3, [r7, #16]
 80016fc:	b2da      	uxtb	r2, r3
 80016fe:	697b      	ldr	r3, [r7, #20]
 8001700:	1c59      	adds	r1, r3, #1
 8001702:	6179      	str	r1, [r7, #20]
 8001704:	f062 027f 	orn	r2, r2, #127	@ 0x7f
 8001708:	b2d2      	uxtb	r2, r2
 800170a:	701a      	strb	r2, [r3, #0]
 800170c:	693b      	ldr	r3, [r7, #16]
 800170e:	09db      	lsrs	r3, r3, #7
 8001710:	613b      	str	r3, [r7, #16]
 8001712:	693b      	ldr	r3, [r7, #16]
 8001714:	2b7f      	cmp	r3, #127	@ 0x7f
 8001716:	d8f0      	bhi.n	80016fa <SEGGER_SYSVIEW_Start+0x106>
 8001718:	697b      	ldr	r3, [r7, #20]
 800171a:	1c5a      	adds	r2, r3, #1
 800171c:	617a      	str	r2, [r7, #20]
 800171e:	693a      	ldr	r2, [r7, #16]
 8001720:	b2d2      	uxtb	r2, r2
 8001722:	701a      	strb	r2, [r3, #0]
 8001724:	697b      	ldr	r3, [r7, #20]
 8001726:	603b      	str	r3, [r7, #0]
      _SendPacket(pPayloadStart, pPayload, SYSVIEW_EVTID_INIT);
 8001728:	2218      	movs	r2, #24
 800172a:	6839      	ldr	r1, [r7, #0]
 800172c:	6878      	ldr	r0, [r7, #4]
 800172e:	f7ff fc21 	bl	8000f74 <_SendPacket>
      RECORD_END();
 8001732:	68bb      	ldr	r3, [r7, #8]
 8001734:	f383 8811 	msr	BASEPRI, r3
    }
    if (_SYSVIEW_Globals.pfSendSysDesc) {
 8001738:	4b08      	ldr	r3, [pc, #32]	@ (800175c <SEGGER_SYSVIEW_Start+0x168>)
 800173a:	6a5b      	ldr	r3, [r3, #36]	@ 0x24
 800173c:	2b00      	cmp	r3, #0
 800173e:	d002      	beq.n	8001746 <SEGGER_SYSVIEW_Start+0x152>
      _SYSVIEW_Globals.pfSendSysDesc();
 8001740:	4b06      	ldr	r3, [pc, #24]	@ (800175c <SEGGER_SYSVIEW_Start+0x168>)
 8001742:	6a5b      	ldr	r3, [r3, #36]	@ 0x24
 8001744:	4798      	blx	r3
    }
    SEGGER_SYSVIEW_RecordSystime();
 8001746:	f000 f9eb 	bl	8001b20 <SEGGER_SYSVIEW_RecordSystime>
    SEGGER_SYSVIEW_SendTaskList();
 800174a:	f000 f9b1 	bl	8001ab0 <SEGGER_SYSVIEW_SendTaskList>
    SEGGER_SYSVIEW_SendNumModules();
 800174e:	f000 fcc1 	bl	80020d4 <SEGGER_SYSVIEW_SendNumModules>
#endif
#if (SEGGER_SYSVIEW_CAN_RESTART == 0)
  }
#endif
}
 8001752:	bf00      	nop
 8001754:	3730      	adds	r7, #48	@ 0x30
 8001756:	46bd      	mov	sp, r7
 8001758:	bd80      	pop	{r7, pc}
 800175a:	bf00      	nop
 800175c:	200015f0 	.word	0x200015f0
 8001760:	08004364 	.word	0x08004364
 8001764:	20001620 	.word	0x20001620

08001768 <SEGGER_SYSVIEW_Stop>:
*    This function disables transmission of SystemView packets recorded
*    by subsequent trace calls.  If transmission is enabled when
*    this function is called, a single SystemView Stop event is recorded
*    to the trace, send, and then trace transmission is halted.
*/
void SEGGER_SYSVIEW_Stop(void) {
 8001768:	b580      	push	{r7, lr}
 800176a:	b082      	sub	sp, #8
 800176c:	af00      	add	r7, sp, #0
  U8* pPayloadStart;
  RECORD_START(SEGGER_SYSVIEW_INFO_SIZE);
 800176e:	f3ef 8311 	mrs	r3, BASEPRI
 8001772:	f04f 0120 	mov.w	r1, #32
 8001776:	f381 8811 	msr	BASEPRI, r1
 800177a:	607b      	str	r3, [r7, #4]
 800177c:	480b      	ldr	r0, [pc, #44]	@ (80017ac <SEGGER_SYSVIEW_Stop+0x44>)
 800177e:	f7ff fb0c 	bl	8000d9a <_PreparePacket>
 8001782:	6038      	str	r0, [r7, #0]
  //
  if (_SYSVIEW_Globals.EnableState) {
 8001784:	4b0a      	ldr	r3, [pc, #40]	@ (80017b0 <SEGGER_SYSVIEW_Stop+0x48>)
 8001786:	781b      	ldrb	r3, [r3, #0]
 8001788:	2b00      	cmp	r3, #0
 800178a:	d007      	beq.n	800179c <SEGGER_SYSVIEW_Stop+0x34>
    _SendPacket(pPayloadStart, pPayloadStart, SYSVIEW_EVTID_TRACE_STOP);
 800178c:	220b      	movs	r2, #11
 800178e:	6839      	ldr	r1, [r7, #0]
 8001790:	6838      	ldr	r0, [r7, #0]
 8001792:	f7ff fbef 	bl	8000f74 <_SendPacket>
    _SYSVIEW_Globals.EnableState = 0;
 8001796:	4b06      	ldr	r3, [pc, #24]	@ (80017b0 <SEGGER_SYSVIEW_Stop+0x48>)
 8001798:	2200      	movs	r2, #0
 800179a:	701a      	strb	r2, [r3, #0]
  }
  RECORD_END();
 800179c:	687b      	ldr	r3, [r7, #4]
 800179e:	f383 8811 	msr	BASEPRI, r3
}
 80017a2:	bf00      	nop
 80017a4:	3708      	adds	r7, #8
 80017a6:	46bd      	mov	sp, r7
 80017a8:	bd80      	pop	{r7, pc}
 80017aa:	bf00      	nop
 80017ac:	20001620 	.word	0x20001620
 80017b0:	200015f0 	.word	0x200015f0

080017b4 <SEGGER_SYSVIEW_GetSysDesc>:
*
*  Function description
*    Triggers a send of the system information and description.
*
*/
void SEGGER_SYSVIEW_GetSysDesc(void) {
 80017b4:	b580      	push	{r7, lr}
 80017b6:	b08c      	sub	sp, #48	@ 0x30
 80017b8:	af00      	add	r7, sp, #0
  U8* pPayload;
  U8* pPayloadStart;
  RECORD_START(SEGGER_SYSVIEW_INFO_SIZE + 4 * SEGGER_SYSVIEW_QUANTA_U32);
 80017ba:	f3ef 8311 	mrs	r3, BASEPRI
 80017be:	f04f 0120 	mov.w	r1, #32
 80017c2:	f381 8811 	msr	BASEPRI, r1
 80017c6:	60fb      	str	r3, [r7, #12]
 80017c8:	4845      	ldr	r0, [pc, #276]	@ (80018e0 <SEGGER_SYSVIEW_GetSysDesc+0x12c>)
 80017ca:	f7ff fae6 	bl	8000d9a <_PreparePacket>
 80017ce:	60b8      	str	r0, [r7, #8]
  //
  pPayload = pPayloadStart;
 80017d0:	68bb      	ldr	r3, [r7, #8]
 80017d2:	607b      	str	r3, [r7, #4]
  ENCODE_U32(pPayload, _SYSVIEW_Globals.SysFreq);
 80017d4:	687b      	ldr	r3, [r7, #4]
 80017d6:	62fb      	str	r3, [r7, #44]	@ 0x2c
 80017d8:	4b42      	ldr	r3, [pc, #264]	@ (80018e4 <SEGGER_SYSVIEW_GetSysDesc+0x130>)
 80017da:	685b      	ldr	r3, [r3, #4]
 80017dc:	62bb      	str	r3, [r7, #40]	@ 0x28
 80017de:	e00b      	b.n	80017f8 <SEGGER_SYSVIEW_GetSysDesc+0x44>
 80017e0:	6abb      	ldr	r3, [r7, #40]	@ 0x28
 80017e2:	b2da      	uxtb	r2, r3
 80017e4:	6afb      	ldr	r3, [r7, #44]	@ 0x2c
 80017e6:	1c59      	adds	r1, r3, #1
 80017e8:	62f9      	str	r1, [r7, #44]	@ 0x2c
 80017ea:	f062 027f 	orn	r2, r2, #127	@ 0x7f
 80017ee:	b2d2      	uxtb	r2, r2
 80017f0:	701a      	strb	r2, [r3, #0]
 80017f2:	6abb      	ldr	r3, [r7, #40]	@ 0x28
 80017f4:	09db      	lsrs	r3, r3, #7
 80017f6:	62bb      	str	r3, [r7, #40]	@ 0x28
 80017f8:	6abb      	ldr	r3, [r7, #40]	@ 0x28
 80017fa:	2b7f      	cmp	r3, #127	@ 0x7f
 80017fc:	d8f0      	bhi.n	80017e0 <SEGGER_SYSVIEW_GetSysDesc+0x2c>
 80017fe:	6afb      	ldr	r3, [r7, #44]	@ 0x2c
 8001800:	1c5a      	adds	r2, r3, #1
 8001802:	62fa      	str	r2, [r7, #44]	@ 0x2c
 8001804:	6aba      	ldr	r2, [r7, #40]	@ 0x28
 8001806:	b2d2      	uxtb	r2, r2
 8001808:	701a      	strb	r2, [r3, #0]
 800180a:	6afb      	ldr	r3, [r7, #44]	@ 0x2c
 800180c:	607b      	str	r3, [r7, #4]
  ENCODE_U32(pPayload, _SYSVIEW_Globals.CPUFreq);
 800180e:	687b      	ldr	r3, [r7, #4]
 8001810:	627b      	str	r3, [r7, #36]	@ 0x24
 8001812:	4b34      	ldr	r3, [pc, #208]	@ (80018e4 <SEGGER_SYSVIEW_GetSysDesc+0x130>)
 8001814:	689b      	ldr	r3, [r3, #8]
 8001816:	623b      	str	r3, [r7, #32]
 8001818:	e00b      	b.n	8001832 <SEGGER_SYSVIEW_GetSysDesc+0x7e>
 800181a:	6a3b      	ldr	r3, [r7, #32]
 800181c:	b2da      	uxtb	r2, r3
 800181e:	6a7b      	ldr	r3, [r7, #36]	@ 0x24
 8001820:	1c59      	adds	r1, r3, #1
 8001822:	6279      	str	r1, [r7, #36]	@ 0x24
 8001824:	f062 027f 	orn	r2, r2, #127	@ 0x7f
 8001828:	b2d2      	uxtb	r2, r2
 800182a:	701a      	strb	r2, [r3, #0]
 800182c:	6a3b      	ldr	r3, [r7, #32]
 800182e:	09db      	lsrs	r3, r3, #7
 8001830:	623b      	str	r3, [r7, #32]
 8001832:	6a3b      	ldr	r3, [r7, #32]
 8001834:	2b7f      	cmp	r3, #127	@ 0x7f
 8001836:	d8f0      	bhi.n	800181a <SEGGER_SYSVIEW_GetSysDesc+0x66>
 8001838:	6a7b      	ldr	r3, [r7, #36]	@ 0x24
 800183a:	1c5a      	adds	r2, r3, #1
 800183c:	627a      	str	r2, [r7, #36]	@ 0x24
 800183e:	6a3a      	ldr	r2, [r7, #32]
 8001840:	b2d2      	uxtb	r2, r2
 8001842:	701a      	strb	r2, [r3, #0]
 8001844:	6a7b      	ldr	r3, [r7, #36]	@ 0x24
 8001846:	607b      	str	r3, [r7, #4]
  ENCODE_U32(pPayload, _SYSVIEW_Globals.RAMBaseAddress);
 8001848:	687b      	ldr	r3, [r7, #4]
 800184a:	61fb      	str	r3, [r7, #28]
 800184c:	4b25      	ldr	r3, [pc, #148]	@ (80018e4 <SEGGER_SYSVIEW_GetSysDesc+0x130>)
 800184e:	691b      	ldr	r3, [r3, #16]
 8001850:	61bb      	str	r3, [r7, #24]
 8001852:	e00b      	b.n	800186c <SEGGER_SYSVIEW_GetSysDesc+0xb8>
 8001854:	69bb      	ldr	r3, [r7, #24]
 8001856:	b2da      	uxtb	r2, r3
 8001858:	69fb      	ldr	r3, [r7, #28]
 800185a:	1c59      	adds	r1, r3, #1
 800185c:	61f9      	str	r1, [r7, #28]
 800185e:	f062 027f 	orn	r2, r2, #127	@ 0x7f
 8001862:	b2d2      	uxtb	r2, r2
 8001864:	701a      	strb	r2, [r3, #0]
 8001866:	69bb      	ldr	r3, [r7, #24]
 8001868:	09db      	lsrs	r3, r3, #7
 800186a:	61bb      	str	r3, [r7, #24]
 800186c:	69bb      	ldr	r3, [r7, #24]
 800186e:	2b7f      	cmp	r3, #127	@ 0x7f
 8001870:	d8f0      	bhi.n	8001854 <SEGGER_SYSVIEW_GetSysDesc+0xa0>
 8001872:	69fb      	ldr	r3, [r7, #28]
 8001874:	1c5a      	adds	r2, r3, #1
 8001876:	61fa      	str	r2, [r7, #28]
 8001878:	69ba      	ldr	r2, [r7, #24]
 800187a:	b2d2      	uxtb	r2, r2
 800187c:	701a      	strb	r2, [r3, #0]
 800187e:	69fb      	ldr	r3, [r7, #28]
 8001880:	607b      	str	r3, [r7, #4]
  ENCODE_U32(pPayload, SEGGER_SYSVIEW_ID_SHIFT);
 8001882:	687b      	ldr	r3, [r7, #4]
 8001884:	617b      	str	r3, [r7, #20]
 8001886:	2300      	movs	r3, #0
 8001888:	613b      	str	r3, [r7, #16]
 800188a:	e00b      	b.n	80018a4 <SEGGER_SYSVIEW_GetSysDesc+0xf0>
 800188c:	693b      	ldr	r3, [r7, #16]
 800188e:	b2da      	uxtb	r2, r3
 8001890:	697b      	ldr	r3, [r7, #20]
 8001892:	1c59      	adds	r1, r3, #1
 8001894:	6179      	str	r1, [r7, #20]
 8001896:	f062 027f 	orn	r2, r2, #127	@ 0x7f
 800189a:	b2d2      	uxtb	r2, r2
 800189c:	701a      	strb	r2, [r3, #0]
 800189e:	693b      	ldr	r3, [r7, #16]
 80018a0:	09db      	lsrs	r3, r3, #7
 80018a2:	613b      	str	r3, [r7, #16]
 80018a4:	693b      	ldr	r3, [r7, #16]
 80018a6:	2b7f      	cmp	r3, #127	@ 0x7f
 80018a8:	d8f0      	bhi.n	800188c <SEGGER_SYSVIEW_GetSysDesc+0xd8>
 80018aa:	697b      	ldr	r3, [r7, #20]
 80018ac:	1c5a      	adds	r2, r3, #1
 80018ae:	617a      	str	r2, [r7, #20]
 80018b0:	693a      	ldr	r2, [r7, #16]
 80018b2:	b2d2      	uxtb	r2, r2
 80018b4:	701a      	strb	r2, [r3, #0]
 80018b6:	697b      	ldr	r3, [r7, #20]
 80018b8:	607b      	str	r3, [r7, #4]
  _SendPacket(pPayloadStart, pPayload, SYSVIEW_EVTID_INIT);
 80018ba:	2218      	movs	r2, #24
 80018bc:	6879      	ldr	r1, [r7, #4]
 80018be:	68b8      	ldr	r0, [r7, #8]
 80018c0:	f7ff fb58 	bl	8000f74 <_SendPacket>
  RECORD_END();
 80018c4:	68fb      	ldr	r3, [r7, #12]
 80018c6:	f383 8811 	msr	BASEPRI, r3
  if (_SYSVIEW_Globals.pfSendSysDesc) {
 80018ca:	4b06      	ldr	r3, [pc, #24]	@ (80018e4 <SEGGER_SYSVIEW_GetSysDesc+0x130>)
 80018cc:	6a5b      	ldr	r3, [r3, #36]	@ 0x24
 80018ce:	2b00      	cmp	r3, #0
 80018d0:	d002      	beq.n	80018d8 <SEGGER_SYSVIEW_GetSysDesc+0x124>
    _SYSVIEW_Globals.pfSendSysDesc();
 80018d2:	4b04      	ldr	r3, [pc, #16]	@ (80018e4 <SEGGER_SYSVIEW_GetSysDesc+0x130>)
 80018d4:	6a5b      	ldr	r3, [r3, #36]	@ 0x24
 80018d6:	4798      	blx	r3
  }
}
 80018d8:	bf00      	nop
 80018da:	3730      	adds	r7, #48	@ 0x30
 80018dc:	46bd      	mov	sp, r7
 80018de:	bd80      	pop	{r7, pc}
 80018e0:	20001620 	.word	0x20001620
 80018e4:	200015f0 	.word	0x200015f0

080018e8 <SEGGER_SYSVIEW_SendTaskInfo>:
*    task priority and task name.
*
*  Parameters
*    pInfo - Pointer to task information to send.
*/
void SEGGER_SYSVIEW_SendTaskInfo(const SEGGER_SYSVIEW_TASKINFO *pInfo) {
 80018e8:	b580      	push	{r7, lr}
 80018ea:	b092      	sub	sp, #72	@ 0x48
 80018ec:	af00      	add	r7, sp, #0
 80018ee:	6078      	str	r0, [r7, #4]
  U8* pPayload;
  U8* pPayloadStart;
  RECORD_START(SEGGER_SYSVIEW_INFO_SIZE + SEGGER_SYSVIEW_QUANTA_U32 + 1 + 32);
 80018f0:	f3ef 8311 	mrs	r3, BASEPRI
 80018f4:	f04f 0120 	mov.w	r1, #32
 80018f8:	f381 8811 	msr	BASEPRI, r1
 80018fc:	617b      	str	r3, [r7, #20]
 80018fe:	486a      	ldr	r0, [pc, #424]	@ (8001aa8 <SEGGER_SYSVIEW_SendTaskInfo+0x1c0>)
 8001900:	f7ff fa4b 	bl	8000d9a <_PreparePacket>
 8001904:	6138      	str	r0, [r7, #16]
  //
  pPayload = pPayloadStart;
 8001906:	693b      	ldr	r3, [r7, #16]
 8001908:	60fb      	str	r3, [r7, #12]
  ENCODE_U32(pPayload, SHRINK_ID(pInfo->TaskID));
 800190a:	68fb      	ldr	r3, [r7, #12]
 800190c:	647b      	str	r3, [r7, #68]	@ 0x44
 800190e:	687b      	ldr	r3, [r7, #4]
 8001910:	681a      	ldr	r2, [r3, #0]
 8001912:	4b66      	ldr	r3, [pc, #408]	@ (8001aac <SEGGER_SYSVIEW_SendTaskInfo+0x1c4>)
 8001914:	691b      	ldr	r3, [r3, #16]
 8001916:	1ad3      	subs	r3, r2, r3
 8001918:	643b      	str	r3, [r7, #64]	@ 0x40
 800191a:	e00b      	b.n	8001934 <SEGGER_SYSVIEW_SendTaskInfo+0x4c>
 800191c:	6c3b      	ldr	r3, [r7, #64]	@ 0x40
 800191e:	b2da      	uxtb	r2, r3
 8001920:	6c7b      	ldr	r3, [r7, #68]	@ 0x44
 8001922:	1c59      	adds	r1, r3, #1
 8001924:	6479      	str	r1, [r7, #68]	@ 0x44
 8001926:	f062 027f 	orn	r2, r2, #127	@ 0x7f
 800192a:	b2d2      	uxtb	r2, r2
 800192c:	701a      	strb	r2, [r3, #0]
 800192e:	6c3b      	ldr	r3, [r7, #64]	@ 0x40
 8001930:	09db      	lsrs	r3, r3, #7
 8001932:	643b      	str	r3, [r7, #64]	@ 0x40
 8001934:	6c3b      	ldr	r3, [r7, #64]	@ 0x40
 8001936:	2b7f      	cmp	r3, #127	@ 0x7f
 8001938:	d8f0      	bhi.n	800191c <SEGGER_SYSVIEW_SendTaskInfo+0x34>
 800193a:	6c7b      	ldr	r3, [r7, #68]	@ 0x44
 800193c:	1c5a      	adds	r2, r3, #1
 800193e:	647a      	str	r2, [r7, #68]	@ 0x44
 8001940:	6c3a      	ldr	r2, [r7, #64]	@ 0x40
 8001942:	b2d2      	uxtb	r2, r2
 8001944:	701a      	strb	r2, [r3, #0]
 8001946:	6c7b      	ldr	r3, [r7, #68]	@ 0x44
 8001948:	60fb      	str	r3, [r7, #12]
  ENCODE_U32(pPayload, pInfo->Prio);
 800194a:	68fb      	ldr	r3, [r7, #12]
 800194c:	63fb      	str	r3, [r7, #60]	@ 0x3c
 800194e:	687b      	ldr	r3, [r7, #4]
 8001950:	689b      	ldr	r3, [r3, #8]
 8001952:	63bb      	str	r3, [r7, #56]	@ 0x38
 8001954:	e00b      	b.n	800196e <SEGGER_SYSVIEW_SendTaskInfo+0x86>
 8001956:	6bbb      	ldr	r3, [r7, #56]	@ 0x38
 8001958:	b2da      	uxtb	r2, r3
 800195a:	6bfb      	ldr	r3, [r7, #60]	@ 0x3c
 800195c:	1c59      	adds	r1, r3, #1
 800195e:	63f9      	str	r1, [r7, #60]	@ 0x3c
 8001960:	f062 027f 	orn	r2, r2, #127	@ 0x7f
 8001964:	b2d2      	uxtb	r2, r2
 8001966:	701a      	strb	r2, [r3, #0]
 8001968:	6bbb      	ldr	r3, [r7, #56]	@ 0x38
 800196a:	09db      	lsrs	r3, r3, #7
 800196c:	63bb      	str	r3, [r7, #56]	@ 0x38
 800196e:	6bbb      	ldr	r3, [r7, #56]	@ 0x38
 8001970:	2b7f      	cmp	r3, #127	@ 0x7f
 8001972:	d8f0      	bhi.n	8001956 <SEGGER_SYSVIEW_SendTaskInfo+0x6e>
 8001974:	6bfb      	ldr	r3, [r7, #60]	@ 0x3c
 8001976:	1c5a      	adds	r2, r3, #1
 8001978:	63fa      	str	r2, [r7, #60]	@ 0x3c
 800197a:	6bba      	ldr	r2, [r7, #56]	@ 0x38
 800197c:	b2d2      	uxtb	r2, r2
 800197e:	701a      	strb	r2, [r3, #0]
 8001980:	6bfb      	ldr	r3, [r7, #60]	@ 0x3c
 8001982:	60fb      	str	r3, [r7, #12]
  pPayload = _EncodeStr(pPayload, pInfo->sName, 32);
 8001984:	687b      	ldr	r3, [r7, #4]
 8001986:	685b      	ldr	r3, [r3, #4]
 8001988:	2220      	movs	r2, #32
 800198a:	4619      	mov	r1, r3
 800198c:	68f8      	ldr	r0, [r7, #12]
 800198e:	f7ff f9cb 	bl	8000d28 <_EncodeStr>
 8001992:	60f8      	str	r0, [r7, #12]
  _SendPacket(pPayloadStart, pPayload, SYSVIEW_EVTID_TASK_INFO);
 8001994:	2209      	movs	r2, #9
 8001996:	68f9      	ldr	r1, [r7, #12]
 8001998:	6938      	ldr	r0, [r7, #16]
 800199a:	f7ff faeb 	bl	8000f74 <_SendPacket>
  //
  pPayload = pPayloadStart;
 800199e:	693b      	ldr	r3, [r7, #16]
 80019a0:	60fb      	str	r3, [r7, #12]
  ENCODE_U32(pPayload, SHRINK_ID(pInfo->TaskID));
 80019a2:	68fb      	ldr	r3, [r7, #12]
 80019a4:	637b      	str	r3, [r7, #52]	@ 0x34
 80019a6:	687b      	ldr	r3, [r7, #4]
 80019a8:	681a      	ldr	r2, [r3, #0]
 80019aa:	4b40      	ldr	r3, [pc, #256]	@ (8001aac <SEGGER_SYSVIEW_SendTaskInfo+0x1c4>)
 80019ac:	691b      	ldr	r3, [r3, #16]
 80019ae:	1ad3      	subs	r3, r2, r3
 80019b0:	633b      	str	r3, [r7, #48]	@ 0x30
 80019b2:	e00b      	b.n	80019cc <SEGGER_SYSVIEW_SendTaskInfo+0xe4>
 80019b4:	6b3b      	ldr	r3, [r7, #48]	@ 0x30
 80019b6:	b2da      	uxtb	r2, r3
 80019b8:	6b7b      	ldr	r3, [r7, #52]	@ 0x34
 80019ba:	1c59      	adds	r1, r3, #1
 80019bc:	6379      	str	r1, [r7, #52]	@ 0x34
 80019be:	f062 027f 	orn	r2, r2, #127	@ 0x7f
 80019c2:	b2d2      	uxtb	r2, r2
 80019c4:	701a      	strb	r2, [r3, #0]
 80019c6:	6b3b      	ldr	r3, [r7, #48]	@ 0x30
 80019c8:	09db      	lsrs	r3, r3, #7
 80019ca:	633b      	str	r3, [r7, #48]	@ 0x30
 80019cc:	6b3b      	ldr	r3, [r7, #48]	@ 0x30
 80019ce:	2b7f      	cmp	r3, #127	@ 0x7f
 80019d0:	d8f0      	bhi.n	80019b4 <SEGGER_SYSVIEW_SendTaskInfo+0xcc>
 80019d2:	6b7b      	ldr	r3, [r7, #52]	@ 0x34
 80019d4:	1c5a      	adds	r2, r3, #1
 80019d6:	637a      	str	r2, [r7, #52]	@ 0x34
 80019d8:	6b3a      	ldr	r2, [r7, #48]	@ 0x30
 80019da:	b2d2      	uxtb	r2, r2
 80019dc:	701a      	strb	r2, [r3, #0]
 80019de:	6b7b      	ldr	r3, [r7, #52]	@ 0x34
 80019e0:	60fb      	str	r3, [r7, #12]
  ENCODE_U32(pPayload, pInfo->StackBase);
 80019e2:	68fb      	ldr	r3, [r7, #12]
 80019e4:	62fb      	str	r3, [r7, #44]	@ 0x2c
 80019e6:	687b      	ldr	r3, [r7, #4]
 80019e8:	68db      	ldr	r3, [r3, #12]
 80019ea:	62bb      	str	r3, [r7, #40]	@ 0x28
 80019ec:	e00b      	b.n	8001a06 <SEGGER_SYSVIEW_SendTaskInfo+0x11e>
 80019ee:	6abb      	ldr	r3, [r7, #40]	@ 0x28
 80019f0:	b2da      	uxtb	r2, r3
 80019f2:	6afb      	ldr	r3, [r7, #44]	@ 0x2c
 80019f4:	1c59      	adds	r1, r3, #1
 80019f6:	62f9      	str	r1, [r7, #44]	@ 0x2c
 80019f8:	f062 027f 	orn	r2, r2, #127	@ 0x7f
 80019fc:	b2d2      	uxtb	r2, r2
 80019fe:	701a      	strb	r2, [r3, #0]
 8001a00:	6abb      	ldr	r3, [r7, #40]	@ 0x28
 8001a02:	09db      	lsrs	r3, r3, #7
 8001a04:	62bb      	str	r3, [r7, #40]	@ 0x28
 8001a06:	6abb      	ldr	r3, [r7, #40]	@ 0x28
 8001a08:	2b7f      	cmp	r3, #127	@ 0x7f
 8001a0a:	d8f0      	bhi.n	80019ee <SEGGER_SYSVIEW_SendTaskInfo+0x106>
 8001a0c:	6afb      	ldr	r3, [r7, #44]	@ 0x2c
 8001a0e:	1c5a      	adds	r2, r3, #1
 8001a10:	62fa      	str	r2, [r7, #44]	@ 0x2c
 8001a12:	6aba      	ldr	r2, [r7, #40]	@ 0x28
 8001a14:	b2d2      	uxtb	r2, r2
 8001a16:	701a      	strb	r2, [r3, #0]
 8001a18:	6afb      	ldr	r3, [r7, #44]	@ 0x2c
 8001a1a:	60fb      	str	r3, [r7, #12]
  ENCODE_U32(pPayload, pInfo->StackSize);
 8001a1c:	68fb      	ldr	r3, [r7, #12]
 8001a1e:	627b      	str	r3, [r7, #36]	@ 0x24
 8001a20:	687b      	ldr	r3, [r7, #4]
 8001a22:	691b      	ldr	r3, [r3, #16]
 8001a24:	623b      	str	r3, [r7, #32]
 8001a26:	e00b      	b.n	8001a40 <SEGGER_SYSVIEW_SendTaskInfo+0x158>
 8001a28:	6a3b      	ldr	r3, [r7, #32]
 8001a2a:	b2da      	uxtb	r2, r3
 8001a2c:	6a7b      	ldr	r3, [r7, #36]	@ 0x24
 8001a2e:	1c59      	adds	r1, r3, #1
 8001a30:	6279      	str	r1, [r7, #36]	@ 0x24
 8001a32:	f062 027f 	orn	r2, r2, #127	@ 0x7f
 8001a36:	b2d2      	uxtb	r2, r2
 8001a38:	701a      	strb	r2, [r3, #0]
 8001a3a:	6a3b      	ldr	r3, [r7, #32]
 8001a3c:	09db      	lsrs	r3, r3, #7
 8001a3e:	623b      	str	r3, [r7, #32]
 8001a40:	6a3b      	ldr	r3, [r7, #32]
 8001a42:	2b7f      	cmp	r3, #127	@ 0x7f
 8001a44:	d8f0      	bhi.n	8001a28 <SEGGER_SYSVIEW_SendTaskInfo+0x140>
 8001a46:	6a7b      	ldr	r3, [r7, #36]	@ 0x24
 8001a48:	1c5a      	adds	r2, r3, #1
 8001a4a:	627a      	str	r2, [r7, #36]	@ 0x24
 8001a4c:	6a3a      	ldr	r2, [r7, #32]
 8001a4e:	b2d2      	uxtb	r2, r2
 8001a50:	701a      	strb	r2, [r3, #0]
 8001a52:	6a7b      	ldr	r3, [r7, #36]	@ 0x24
 8001a54:	60fb      	str	r3, [r7, #12]
  ENCODE_U32(pPayload, pInfo->StackUsage);
 8001a56:	68fb      	ldr	r3, [r7, #12]
 8001a58:	61fb      	str	r3, [r7, #28]
 8001a5a:	687b      	ldr	r3, [r7, #4]
 8001a5c:	695b      	ldr	r3, [r3, #20]
 8001a5e:	61bb      	str	r3, [r7, #24]
 8001a60:	e00b      	b.n	8001a7a <SEGGER_SYSVIEW_SendTaskInfo+0x192>
 8001a62:	69bb      	ldr	r3, [r7, #24]
 8001a64:	b2da      	uxtb	r2, r3
 8001a66:	69fb      	ldr	r3, [r7, #28]
 8001a68:	1c59      	adds	r1, r3, #1
 8001a6a:	61f9      	str	r1, [r7, #28]
 8001a6c:	f062 027f 	orn	r2, r2, #127	@ 0x7f
 8001a70:	b2d2      	uxtb	r2, r2
 8001a72:	701a      	strb	r2, [r3, #0]
 8001a74:	69bb      	ldr	r3, [r7, #24]
 8001a76:	09db      	lsrs	r3, r3, #7
 8001a78:	61bb      	str	r3, [r7, #24]
 8001a7a:	69bb      	ldr	r3, [r7, #24]
 8001a7c:	2b7f      	cmp	r3, #127	@ 0x7f
 8001a7e:	d8f0      	bhi.n	8001a62 <SEGGER_SYSVIEW_SendTaskInfo+0x17a>
 8001a80:	69fb      	ldr	r3, [r7, #28]
 8001a82:	1c5a      	adds	r2, r3, #1
 8001a84:	61fa      	str	r2, [r7, #28]
 8001a86:	69ba      	ldr	r2, [r7, #24]
 8001a88:	b2d2      	uxtb	r2, r2
 8001a8a:	701a      	strb	r2, [r3, #0]
 8001a8c:	69fb      	ldr	r3, [r7, #28]
 8001a8e:	60fb      	str	r3, [r7, #12]
  _SendPacket(pPayloadStart, pPayload, SYSVIEW_EVTID_STACK_INFO);
 8001a90:	2215      	movs	r2, #21
 8001a92:	68f9      	ldr	r1, [r7, #12]
 8001a94:	6938      	ldr	r0, [r7, #16]
 8001a96:	f7ff fa6d 	bl	8000f74 <_SendPacket>
  RECORD_END();
 8001a9a:	697b      	ldr	r3, [r7, #20]
 8001a9c:	f383 8811 	msr	BASEPRI, r3
}
 8001aa0:	bf00      	nop
 8001aa2:	3748      	adds	r7, #72	@ 0x48
 8001aa4:	46bd      	mov	sp, r7
 8001aa6:	bd80      	pop	{r7, pc}
 8001aa8:	20001620 	.word	0x20001620
 8001aac:	200015f0 	.word	0x200015f0

08001ab0 <SEGGER_SYSVIEW_SendTaskList>:
*       SEGGER_SYSVIEW_SendTaskList()
*
*  Function description
*    Send all tasks descriptors to the host.
*/
void SEGGER_SYSVIEW_SendTaskList(void) {
 8001ab0:	b580      	push	{r7, lr}
 8001ab2:	af00      	add	r7, sp, #0
  if (_SYSVIEW_Globals.pOSAPI && _SYSVIEW_Globals.pOSAPI->pfSendTaskList) {
 8001ab4:	4b07      	ldr	r3, [pc, #28]	@ (8001ad4 <SEGGER_SYSVIEW_SendTaskList+0x24>)
 8001ab6:	6a1b      	ldr	r3, [r3, #32]
 8001ab8:	2b00      	cmp	r3, #0
 8001aba:	d008      	beq.n	8001ace <SEGGER_SYSVIEW_SendTaskList+0x1e>
 8001abc:	4b05      	ldr	r3, [pc, #20]	@ (8001ad4 <SEGGER_SYSVIEW_SendTaskList+0x24>)
 8001abe:	6a1b      	ldr	r3, [r3, #32]
 8001ac0:	685b      	ldr	r3, [r3, #4]
 8001ac2:	2b00      	cmp	r3, #0
 8001ac4:	d003      	beq.n	8001ace <SEGGER_SYSVIEW_SendTaskList+0x1e>
    _SYSVIEW_Globals.pOSAPI->pfSendTaskList();
 8001ac6:	4b03      	ldr	r3, [pc, #12]	@ (8001ad4 <SEGGER_SYSVIEW_SendTaskList+0x24>)
 8001ac8:	6a1b      	ldr	r3, [r3, #32]
 8001aca:	685b      	ldr	r3, [r3, #4]
 8001acc:	4798      	blx	r3
  }
}
 8001ace:	bf00      	nop
 8001ad0:	bd80      	pop	{r7, pc}
 8001ad2:	bf00      	nop
 8001ad4:	200015f0 	.word	0x200015f0

08001ad8 <SEGGER_SYSVIEW_SendSysDesc>:
*
*    The Following items can be described in a system description string.
*    Each item is identified by its identifier, followed by '=' and the value.
*    Items are separated by ','.
*/
void SEGGER_SYSVIEW_SendSysDesc(const char *sSysDesc) {
 8001ad8:	b580      	push	{r7, lr}
 8001ada:	b086      	sub	sp, #24
 8001adc:	af00      	add	r7, sp, #0
 8001ade:	6078      	str	r0, [r7, #4]
  U8* pPayload;
  U8* pPayloadStart;
  RECORD_START(SEGGER_SYSVIEW_INFO_SIZE + 1 + SEGGER_SYSVIEW_MAX_STRING_LEN);
 8001ae0:	f3ef 8311 	mrs	r3, BASEPRI
 8001ae4:	f04f 0120 	mov.w	r1, #32
 8001ae8:	f381 8811 	msr	BASEPRI, r1
 8001aec:	617b      	str	r3, [r7, #20]
 8001aee:	480b      	ldr	r0, [pc, #44]	@ (8001b1c <SEGGER_SYSVIEW_SendSysDesc+0x44>)
 8001af0:	f7ff f953 	bl	8000d9a <_PreparePacket>
 8001af4:	6138      	str	r0, [r7, #16]
  //
  pPayload = _EncodeStr(pPayloadStart, sSysDesc, SEGGER_SYSVIEW_MAX_STRING_LEN);
 8001af6:	2280      	movs	r2, #128	@ 0x80
 8001af8:	6879      	ldr	r1, [r7, #4]
 8001afa:	6938      	ldr	r0, [r7, #16]
 8001afc:	f7ff f914 	bl	8000d28 <_EncodeStr>
 8001b00:	60f8      	str	r0, [r7, #12]
  _SendPacket(pPayloadStart, pPayload, SYSVIEW_EVTID_SYSDESC);
 8001b02:	220e      	movs	r2, #14
 8001b04:	68f9      	ldr	r1, [r7, #12]
 8001b06:	6938      	ldr	r0, [r7, #16]
 8001b08:	f7ff fa34 	bl	8000f74 <_SendPacket>
  RECORD_END();
 8001b0c:	697b      	ldr	r3, [r7, #20]
 8001b0e:	f383 8811 	msr	BASEPRI, r3
}
 8001b12:	bf00      	nop
 8001b14:	3718      	adds	r7, #24
 8001b16:	46bd      	mov	sp, r7
 8001b18:	bd80      	pop	{r7, pc}
 8001b1a:	bf00      	nop
 8001b1c:	20001620 	.word	0x20001620

08001b20 <SEGGER_SYSVIEW_RecordSystime>:
*
*  Function description
*    Formats and sends a SystemView Systime containing a single U64 or U32
*    parameter payload.
*/
void SEGGER_SYSVIEW_RecordSystime(void) {
 8001b20:	b590      	push	{r4, r7, lr}
 8001b22:	b083      	sub	sp, #12
 8001b24:	af00      	add	r7, sp, #0
  U64 Systime;

  if (_SYSVIEW_Globals.pOSAPI && _SYSVIEW_Globals.pOSAPI->pfGetTime) {
 8001b26:	4b15      	ldr	r3, [pc, #84]	@ (8001b7c <SEGGER_SYSVIEW_RecordSystime+0x5c>)
 8001b28:	6a1b      	ldr	r3, [r3, #32]
 8001b2a:	2b00      	cmp	r3, #0
 8001b2c:	d01a      	beq.n	8001b64 <SEGGER_SYSVIEW_RecordSystime+0x44>
 8001b2e:	4b13      	ldr	r3, [pc, #76]	@ (8001b7c <SEGGER_SYSVIEW_RecordSystime+0x5c>)
 8001b30:	6a1b      	ldr	r3, [r3, #32]
 8001b32:	681b      	ldr	r3, [r3, #0]
 8001b34:	2b00      	cmp	r3, #0
 8001b36:	d015      	beq.n	8001b64 <SEGGER_SYSVIEW_RecordSystime+0x44>
    Systime = _SYSVIEW_Globals.pOSAPI->pfGetTime();
 8001b38:	4b10      	ldr	r3, [pc, #64]	@ (8001b7c <SEGGER_SYSVIEW_RecordSystime+0x5c>)
 8001b3a:	6a1b      	ldr	r3, [r3, #32]
 8001b3c:	681b      	ldr	r3, [r3, #0]
 8001b3e:	4798      	blx	r3
 8001b40:	e9c7 0100 	strd	r0, r1, [r7]
    SEGGER_SYSVIEW_RecordU32x2(SYSVIEW_EVTID_SYSTIME_US,
 8001b44:	683c      	ldr	r4, [r7, #0]
                               (U32)(Systime),
                               (U32)(Systime >> 32));
 8001b46:	e9d7 0100 	ldrd	r0, r1, [r7]
 8001b4a:	f04f 0200 	mov.w	r2, #0
 8001b4e:	f04f 0300 	mov.w	r3, #0
 8001b52:	000a      	movs	r2, r1
 8001b54:	2300      	movs	r3, #0
    SEGGER_SYSVIEW_RecordU32x2(SYSVIEW_EVTID_SYSTIME_US,
 8001b56:	4613      	mov	r3, r2
 8001b58:	461a      	mov	r2, r3
 8001b5a:	4621      	mov	r1, r4
 8001b5c:	200d      	movs	r0, #13
 8001b5e:	f7ff fc25 	bl	80013ac <SEGGER_SYSVIEW_RecordU32x2>
 8001b62:	e006      	b.n	8001b72 <SEGGER_SYSVIEW_RecordSystime+0x52>
  } else {
    SEGGER_SYSVIEW_RecordU32(SYSVIEW_EVTID_SYSTIME_CYCLES, SEGGER_SYSVIEW_GET_TIMESTAMP());
 8001b64:	4b06      	ldr	r3, [pc, #24]	@ (8001b80 <SEGGER_SYSVIEW_RecordSystime+0x60>)
 8001b66:	681b      	ldr	r3, [r3, #0]
 8001b68:	4619      	mov	r1, r3
 8001b6a:	200c      	movs	r0, #12
 8001b6c:	f7ff fbe2 	bl	8001334 <SEGGER_SYSVIEW_RecordU32>
  }
}
 8001b70:	bf00      	nop
 8001b72:	bf00      	nop
 8001b74:	370c      	adds	r7, #12
 8001b76:	46bd      	mov	sp, r7
 8001b78:	bd90      	pop	{r4, r7, pc}
 8001b7a:	bf00      	nop
 8001b7c:	200015f0 	.word	0x200015f0
 8001b80:	e0001004 	.word	0xe0001004

08001b84 <SEGGER_SYSVIEW_RecordEnterISR>:
*
*  Additional information
*    Example packets sent
*      02 0F 50              // ISR(15) Enter. Timestamp is 80 (0x50)
*/
void SEGGER_SYSVIEW_RecordEnterISR(void) {
 8001b84:	b580      	push	{r7, lr}
 8001b86:	b086      	sub	sp, #24
 8001b88:	af00      	add	r7, sp, #0
  unsigned v;
  U8* pPayload;
  U8* pPayloadStart;
  RECORD_START(SEGGER_SYSVIEW_INFO_SIZE + SEGGER_SYSVIEW_QUANTA_U32);
 8001b8a:	f3ef 8311 	mrs	r3, BASEPRI
 8001b8e:	f04f 0120 	mov.w	r1, #32
 8001b92:	f381 8811 	msr	BASEPRI, r1
 8001b96:	60fb      	str	r3, [r7, #12]
 8001b98:	4819      	ldr	r0, [pc, #100]	@ (8001c00 <SEGGER_SYSVIEW_RecordEnterISR+0x7c>)
 8001b9a:	f7ff f8fe 	bl	8000d9a <_PreparePacket>
 8001b9e:	60b8      	str	r0, [r7, #8]
  //
  pPayload = pPayloadStart;
 8001ba0:	68bb      	ldr	r3, [r7, #8]
 8001ba2:	607b      	str	r3, [r7, #4]
  v = SEGGER_SYSVIEW_GET_INTERRUPT_ID();
 8001ba4:	4b17      	ldr	r3, [pc, #92]	@ (8001c04 <SEGGER_SYSVIEW_RecordEnterISR+0x80>)
 8001ba6:	681b      	ldr	r3, [r3, #0]
 8001ba8:	f3c3 0308 	ubfx	r3, r3, #0, #9
 8001bac:	603b      	str	r3, [r7, #0]
  ENCODE_U32(pPayload, v);
 8001bae:	687b      	ldr	r3, [r7, #4]
 8001bb0:	617b      	str	r3, [r7, #20]
 8001bb2:	683b      	ldr	r3, [r7, #0]
 8001bb4:	613b      	str	r3, [r7, #16]
 8001bb6:	e00b      	b.n	8001bd0 <SEGGER_SYSVIEW_RecordEnterISR+0x4c>
 8001bb8:	693b      	ldr	r3, [r7, #16]
 8001bba:	b2da      	uxtb	r2, r3
 8001bbc:	697b      	ldr	r3, [r7, #20]
 8001bbe:	1c59      	adds	r1, r3, #1
 8001bc0:	6179      	str	r1, [r7, #20]
 8001bc2:	f062 027f 	orn	r2, r2, #127	@ 0x7f
 8001bc6:	b2d2      	uxtb	r2, r2
 8001bc8:	701a      	strb	r2, [r3, #0]
 8001bca:	693b      	ldr	r3, [r7, #16]
 8001bcc:	09db      	lsrs	r3, r3, #7
 8001bce:	613b      	str	r3, [r7, #16]
 8001bd0:	693b      	ldr	r3, [r7, #16]
 8001bd2:	2b7f      	cmp	r3, #127	@ 0x7f
 8001bd4:	d8f0      	bhi.n	8001bb8 <SEGGER_SYSVIEW_RecordEnterISR+0x34>
 8001bd6:	697b      	ldr	r3, [r7, #20]
 8001bd8:	1c5a      	adds	r2, r3, #1
 8001bda:	617a      	str	r2, [r7, #20]
 8001bdc:	693a      	ldr	r2, [r7, #16]
 8001bde:	b2d2      	uxtb	r2, r2
 8001be0:	701a      	strb	r2, [r3, #0]
 8001be2:	697b      	ldr	r3, [r7, #20]
 8001be4:	607b      	str	r3, [r7, #4]
  _SendPacket(pPayloadStart, pPayload, SYSVIEW_EVTID_ISR_ENTER);
 8001be6:	2202      	movs	r2, #2
 8001be8:	6879      	ldr	r1, [r7, #4]
 8001bea:	68b8      	ldr	r0, [r7, #8]
 8001bec:	f7ff f9c2 	bl	8000f74 <_SendPacket>
  RECORD_END();
 8001bf0:	68fb      	ldr	r3, [r7, #12]
 8001bf2:	f383 8811 	msr	BASEPRI, r3
}
 8001bf6:	bf00      	nop
 8001bf8:	3718      	adds	r7, #24
 8001bfa:	46bd      	mov	sp, r7
 8001bfc:	bd80      	pop	{r7, pc}
 8001bfe:	bf00      	nop
 8001c00:	20001620 	.word	0x20001620
 8001c04:	e000ed04 	.word	0xe000ed04

08001c08 <SEGGER_SYSVIEW_RecordExitISR>:
*      03 <TimeStamp>        // Max. packet len is 6
*
*    Example packets sent
*      03 20                // ISR Exit. Timestamp is 32 (0x20)
*/
void SEGGER_SYSVIEW_RecordExitISR(void) {
 8001c08:	b580      	push	{r7, lr}
 8001c0a:	b082      	sub	sp, #8
 8001c0c:	af00      	add	r7, sp, #0
  U8* pPayloadStart;
  RECORD_START(SEGGER_SYSVIEW_INFO_SIZE);
 8001c0e:	f3ef 8311 	mrs	r3, BASEPRI
 8001c12:	f04f 0120 	mov.w	r1, #32
 8001c16:	f381 8811 	msr	BASEPRI, r1
 8001c1a:	607b      	str	r3, [r7, #4]
 8001c1c:	4807      	ldr	r0, [pc, #28]	@ (8001c3c <SEGGER_SYSVIEW_RecordExitISR+0x34>)
 8001c1e:	f7ff f8bc 	bl	8000d9a <_PreparePacket>
 8001c22:	6038      	str	r0, [r7, #0]
  //
  _SendPacket(pPayloadStart, pPayloadStart, SYSVIEW_EVTID_ISR_EXIT);
 8001c24:	2203      	movs	r2, #3
 8001c26:	6839      	ldr	r1, [r7, #0]
 8001c28:	6838      	ldr	r0, [r7, #0]
 8001c2a:	f7ff f9a3 	bl	8000f74 <_SendPacket>
  RECORD_END();
 8001c2e:	687b      	ldr	r3, [r7, #4]
 8001c30:	f383 8811 	msr	BASEPRI, r3
}
 8001c34:	bf00      	nop
 8001c36:	3708      	adds	r7, #8
 8001c38:	46bd      	mov	sp, r7
 8001c3a:	bd80      	pop	{r7, pc}
 8001c3c:	20001620 	.word	0x20001620

08001c40 <SEGGER_SYSVIEW_RecordExitISRToScheduler>:
*      18 <TimeStamp>        // Max. packet len is 6
*
*    Example packets sent
*      18 20                // ISR Exit to Scheduler. Timestamp is 32 (0x20)
*/
void SEGGER_SYSVIEW_RecordExitISRToScheduler(void) {
 8001c40:	b580      	push	{r7, lr}
 8001c42:	b082      	sub	sp, #8
 8001c44:	af00      	add	r7, sp, #0
  U8* pPayloadStart;
  RECORD_START(SEGGER_SYSVIEW_INFO_SIZE);
 8001c46:	f3ef 8311 	mrs	r3, BASEPRI
 8001c4a:	f04f 0120 	mov.w	r1, #32
 8001c4e:	f381 8811 	msr	BASEPRI, r1
 8001c52:	607b      	str	r3, [r7, #4]
 8001c54:	4807      	ldr	r0, [pc, #28]	@ (8001c74 <SEGGER_SYSVIEW_RecordExitISRToScheduler+0x34>)
 8001c56:	f7ff f8a0 	bl	8000d9a <_PreparePacket>
 8001c5a:	6038      	str	r0, [r7, #0]
  //
  _SendPacket(pPayloadStart, pPayloadStart, SYSVIEW_EVTID_ISR_TO_SCHEDULER);
 8001c5c:	2212      	movs	r2, #18
 8001c5e:	6839      	ldr	r1, [r7, #0]
 8001c60:	6838      	ldr	r0, [r7, #0]
 8001c62:	f7ff f987 	bl	8000f74 <_SendPacket>
  RECORD_END();
 8001c66:	687b      	ldr	r3, [r7, #4]
 8001c68:	f383 8811 	msr	BASEPRI, r3
}
 8001c6c:	bf00      	nop
 8001c6e:	3708      	adds	r7, #8
 8001c70:	46bd      	mov	sp, r7
 8001c72:	bd80      	pop	{r7, pc}
 8001c74:	20001620 	.word	0x20001620

08001c78 <SEGGER_SYSVIEW_RecordEndCall>:
*    Format and send an End API Call event without return value.
*
*  Parameters
*    EventID - Id of API function which ends.
*/
void SEGGER_SYSVIEW_RecordEndCall(unsigned int EventID) {
 8001c78:	b580      	push	{r7, lr}
 8001c7a:	b088      	sub	sp, #32
 8001c7c:	af00      	add	r7, sp, #0
 8001c7e:	6078      	str	r0, [r7, #4]
  U8* pPayload;
  U8* pPayloadStart;
  RECORD_START(SEGGER_SYSVIEW_INFO_SIZE + SEGGER_SYSVIEW_QUANTA_U32);
 8001c80:	f3ef 8311 	mrs	r3, BASEPRI
 8001c84:	f04f 0120 	mov.w	r1, #32
 8001c88:	f381 8811 	msr	BASEPRI, r1
 8001c8c:	617b      	str	r3, [r7, #20]
 8001c8e:	4817      	ldr	r0, [pc, #92]	@ (8001cec <SEGGER_SYSVIEW_RecordEndCall+0x74>)
 8001c90:	f7ff f883 	bl	8000d9a <_PreparePacket>
 8001c94:	6138      	str	r0, [r7, #16]
  //
  pPayload = pPayloadStart;
 8001c96:	693b      	ldr	r3, [r7, #16]
 8001c98:	60fb      	str	r3, [r7, #12]
  ENCODE_U32(pPayload, EventID);
 8001c9a:	68fb      	ldr	r3, [r7, #12]
 8001c9c:	61fb      	str	r3, [r7, #28]
 8001c9e:	687b      	ldr	r3, [r7, #4]
 8001ca0:	61bb      	str	r3, [r7, #24]
 8001ca2:	e00b      	b.n	8001cbc <SEGGER_SYSVIEW_RecordEndCall+0x44>
 8001ca4:	69bb      	ldr	r3, [r7, #24]
 8001ca6:	b2da      	uxtb	r2, r3
 8001ca8:	69fb      	ldr	r3, [r7, #28]
 8001caa:	1c59      	adds	r1, r3, #1
 8001cac:	61f9      	str	r1, [r7, #28]
 8001cae:	f062 027f 	orn	r2, r2, #127	@ 0x7f
 8001cb2:	b2d2      	uxtb	r2, r2
 8001cb4:	701a      	strb	r2, [r3, #0]
 8001cb6:	69bb      	ldr	r3, [r7, #24]
 8001cb8:	09db      	lsrs	r3, r3, #7
 8001cba:	61bb      	str	r3, [r7, #24]
 8001cbc:	69bb      	ldr	r3, [r7, #24]
 8001cbe:	2b7f      	cmp	r3, #127	@ 0x7f
 8001cc0:	d8f0      	bhi.n	8001ca4 <SEGGER_SYSVIEW_RecordEndCall+0x2c>
 8001cc2:	69fb      	ldr	r3, [r7, #28]
 8001cc4:	1c5a      	adds	r2, r3, #1
 8001cc6:	61fa      	str	r2, [r7, #28]
 8001cc8:	69ba      	ldr	r2, [r7, #24]
 8001cca:	b2d2      	uxtb	r2, r2
 8001ccc:	701a      	strb	r2, [r3, #0]
 8001cce:	69fb      	ldr	r3, [r7, #28]
 8001cd0:	60fb      	str	r3, [r7, #12]
  _SendPacket(pPayloadStart, pPayload, SYSVIEW_EVTID_END_CALL);
 8001cd2:	221c      	movs	r2, #28
 8001cd4:	68f9      	ldr	r1, [r7, #12]
 8001cd6:	6938      	ldr	r0, [r7, #16]
 8001cd8:	f7ff f94c 	bl	8000f74 <_SendPacket>
  RECORD_END();
 8001cdc:	697b      	ldr	r3, [r7, #20]
 8001cde:	f383 8811 	msr	BASEPRI, r3
}
 8001ce2:	bf00      	nop
 8001ce4:	3720      	adds	r7, #32
 8001ce6:	46bd      	mov	sp, r7
 8001ce8:	bd80      	pop	{r7, pc}
 8001cea:	bf00      	nop
 8001cec:	20001620 	.word	0x20001620

08001cf0 <SEGGER_SYSVIEW_RecordEndCallU32>:
*
*  Parameters
*    EventID      - Id of API function which ends.
*    Para0        - Return value which will be returned by the API function.
*/
void SEGGER_SYSVIEW_RecordEndCallU32(unsigned int EventID, U32 Para0) {
 8001cf0:	b580      	push	{r7, lr}
 8001cf2:	b08a      	sub	sp, #40	@ 0x28
 8001cf4:	af00      	add	r7, sp, #0
 8001cf6:	6078      	str	r0, [r7, #4]
 8001cf8:	6039      	str	r1, [r7, #0]
  U8* pPayload;
  U8* pPayloadStart;
  RECORD_START(SEGGER_SYSVIEW_INFO_SIZE + 2 * SEGGER_SYSVIEW_QUANTA_U32);
 8001cfa:	f3ef 8311 	mrs	r3, BASEPRI
 8001cfe:	f04f 0120 	mov.w	r1, #32
 8001d02:	f381 8811 	msr	BASEPRI, r1
 8001d06:	617b      	str	r3, [r7, #20]
 8001d08:	4824      	ldr	r0, [pc, #144]	@ (8001d9c <SEGGER_SYSVIEW_RecordEndCallU32+0xac>)
 8001d0a:	f7ff f846 	bl	8000d9a <_PreparePacket>
 8001d0e:	6138      	str	r0, [r7, #16]
  //
  pPayload = pPayloadStart;
 8001d10:	693b      	ldr	r3, [r7, #16]
 8001d12:	60fb      	str	r3, [r7, #12]
  ENCODE_U32(pPayload, EventID);
 8001d14:	68fb      	ldr	r3, [r7, #12]
 8001d16:	627b      	str	r3, [r7, #36]	@ 0x24
 8001d18:	687b      	ldr	r3, [r7, #4]
 8001d1a:	623b      	str	r3, [r7, #32]
 8001d1c:	e00b      	b.n	8001d36 <SEGGER_SYSVIEW_RecordEndCallU32+0x46>
 8001d1e:	6a3b      	ldr	r3, [r7, #32]
 8001d20:	b2da      	uxtb	r2, r3
 8001d22:	6a7b      	ldr	r3, [r7, #36]	@ 0x24
 8001d24:	1c59      	adds	r1, r3, #1
 8001d26:	6279      	str	r1, [r7, #36]	@ 0x24
 8001d28:	f062 027f 	orn	r2, r2, #127	@ 0x7f
 8001d2c:	b2d2      	uxtb	r2, r2
 8001d2e:	701a      	strb	r2, [r3, #0]
 8001d30:	6a3b      	ldr	r3, [r7, #32]
 8001d32:	09db      	lsrs	r3, r3, #7
 8001d34:	623b      	str	r3, [r7, #32]
 8001d36:	6a3b      	ldr	r3, [r7, #32]
 8001d38:	2b7f      	cmp	r3, #127	@ 0x7f
 8001d3a:	d8f0      	bhi.n	8001d1e <SEGGER_SYSVIEW_RecordEndCallU32+0x2e>
 8001d3c:	6a7b      	ldr	r3, [r7, #36]	@ 0x24
 8001d3e:	1c5a      	adds	r2, r3, #1
 8001d40:	627a      	str	r2, [r7, #36]	@ 0x24
 8001d42:	6a3a      	ldr	r2, [r7, #32]
 8001d44:	b2d2      	uxtb	r2, r2
 8001d46:	701a      	strb	r2, [r3, #0]
 8001d48:	6a7b      	ldr	r3, [r7, #36]	@ 0x24
 8001d4a:	60fb      	str	r3, [r7, #12]
  ENCODE_U32(pPayload, Para0);
 8001d4c:	68fb      	ldr	r3, [r7, #12]
 8001d4e:	61fb      	str	r3, [r7, #28]
 8001d50:	683b      	ldr	r3, [r7, #0]
 8001d52:	61bb      	str	r3, [r7, #24]
 8001d54:	e00b      	b.n	8001d6e <SEGGER_SYSVIEW_RecordEndCallU32+0x7e>
 8001d56:	69bb      	ldr	r3, [r7, #24]
 8001d58:	b2da      	uxtb	r2, r3
 8001d5a:	69fb      	ldr	r3, [r7, #28]
 8001d5c:	1c59      	adds	r1, r3, #1
 8001d5e:	61f9      	str	r1, [r7, #28]
 8001d60:	f062 027f 	orn	r2, r2, #127	@ 0x7f
 8001d64:	b2d2      	uxtb	r2, r2
 8001d66:	701a      	strb	r2, [r3, #0]
 8001d68:	69bb      	ldr	r3, [r7, #24]
 8001d6a:	09db      	lsrs	r3, r3, #7
 8001d6c:	61bb      	str	r3, [r7, #24]
 8001d6e:	69bb      	ldr	r3, [r7, #24]
 8001d70:	2b7f      	cmp	r3, #127	@ 0x7f
 8001d72:	d8f0      	bhi.n	8001d56 <SEGGER_SYSVIEW_RecordEndCallU32+0x66>
 8001d74:	69fb      	ldr	r3, [r7, #28]
 8001d76:	1c5a      	adds	r2, r3, #1
 8001d78:	61fa      	str	r2, [r7, #28]
 8001d7a:	69ba      	ldr	r2, [r7, #24]
 8001d7c:	b2d2      	uxtb	r2, r2
 8001d7e:	701a      	strb	r2, [r3, #0]
 8001d80:	69fb      	ldr	r3, [r7, #28]
 8001d82:	60fb      	str	r3, [r7, #12]
  _SendPacket(pPayloadStart, pPayload, SYSVIEW_EVTID_END_CALL);
 8001d84:	221c      	movs	r2, #28
 8001d86:	68f9      	ldr	r1, [r7, #12]
 8001d88:	6938      	ldr	r0, [r7, #16]
 8001d8a:	f7ff f8f3 	bl	8000f74 <_SendPacket>
  RECORD_END();
 8001d8e:	697b      	ldr	r3, [r7, #20]
 8001d90:	f383 8811 	msr	BASEPRI, r3
}
 8001d94:	bf00      	nop
 8001d96:	3728      	adds	r7, #40	@ 0x28
 8001d98:	46bd      	mov	sp, r7
 8001d9a:	bd80      	pop	{r7, pc}
 8001d9c:	20001620 	.word	0x20001620

08001da0 <SEGGER_SYSVIEW_OnIdle>:
*       SEGGER_SYSVIEW_OnIdle()
*
*  Function description
*    Record an Idle event.
*/
void SEGGER_SYSVIEW_OnIdle(void) {
 8001da0:	b580      	push	{r7, lr}
 8001da2:	b082      	sub	sp, #8
 8001da4:	af00      	add	r7, sp, #0
  U8* pPayloadStart;
  RECORD_START(SEGGER_SYSVIEW_INFO_SIZE);
 8001da6:	f3ef 8311 	mrs	r3, BASEPRI
 8001daa:	f04f 0120 	mov.w	r1, #32
 8001dae:	f381 8811 	msr	BASEPRI, r1
 8001db2:	607b      	str	r3, [r7, #4]
 8001db4:	4807      	ldr	r0, [pc, #28]	@ (8001dd4 <SEGGER_SYSVIEW_OnIdle+0x34>)
 8001db6:	f7fe fff0 	bl	8000d9a <_PreparePacket>
 8001dba:	6038      	str	r0, [r7, #0]
  //
  _SendPacket(pPayloadStart, pPayloadStart, SYSVIEW_EVTID_IDLE);
 8001dbc:	2211      	movs	r2, #17
 8001dbe:	6839      	ldr	r1, [r7, #0]
 8001dc0:	6838      	ldr	r0, [r7, #0]
 8001dc2:	f7ff f8d7 	bl	8000f74 <_SendPacket>
  RECORD_END();
 8001dc6:	687b      	ldr	r3, [r7, #4]
 8001dc8:	f383 8811 	msr	BASEPRI, r3
}
 8001dcc:	bf00      	nop
 8001dce:	3708      	adds	r7, #8
 8001dd0:	46bd      	mov	sp, r7
 8001dd2:	bd80      	pop	{r7, pc}
 8001dd4:	20001620 	.word	0x20001620

08001dd8 <SEGGER_SYSVIEW_OnTaskCreate>:
*    to creating a task in the OS.
*
*  Parameters
*    TaskId        - Task ID of created task.
*/
void SEGGER_SYSVIEW_OnTaskCreate(U32 TaskId) {
 8001dd8:	b580      	push	{r7, lr}
 8001dda:	b088      	sub	sp, #32
 8001ddc:	af00      	add	r7, sp, #0
 8001dde:	6078      	str	r0, [r7, #4]
  U8* pPayload;
  U8* pPayloadStart;
  RECORD_START(SEGGER_SYSVIEW_INFO_SIZE + SEGGER_SYSVIEW_QUANTA_U32);
 8001de0:	f3ef 8311 	mrs	r3, BASEPRI
 8001de4:	f04f 0120 	mov.w	r1, #32
 8001de8:	f381 8811 	msr	BASEPRI, r1
 8001dec:	617b      	str	r3, [r7, #20]
 8001dee:	4819      	ldr	r0, [pc, #100]	@ (8001e54 <SEGGER_SYSVIEW_OnTaskCreate+0x7c>)
 8001df0:	f7fe ffd3 	bl	8000d9a <_PreparePacket>
 8001df4:	6138      	str	r0, [r7, #16]
  //
  pPayload = pPayloadStart;
 8001df6:	693b      	ldr	r3, [r7, #16]
 8001df8:	60fb      	str	r3, [r7, #12]
  TaskId = SHRINK_ID(TaskId);
 8001dfa:	4b17      	ldr	r3, [pc, #92]	@ (8001e58 <SEGGER_SYSVIEW_OnTaskCreate+0x80>)
 8001dfc:	691b      	ldr	r3, [r3, #16]
 8001dfe:	687a      	ldr	r2, [r7, #4]
 8001e00:	1ad3      	subs	r3, r2, r3
 8001e02:	607b      	str	r3, [r7, #4]
  ENCODE_U32(pPayload, TaskId);
 8001e04:	68fb      	ldr	r3, [r7, #12]
 8001e06:	61fb      	str	r3, [r7, #28]
 8001e08:	687b      	ldr	r3, [r7, #4]
 8001e0a:	61bb      	str	r3, [r7, #24]
 8001e0c:	e00b      	b.n	8001e26 <SEGGER_SYSVIEW_OnTaskCreate+0x4e>
 8001e0e:	69bb      	ldr	r3, [r7, #24]
 8001e10:	b2da      	uxtb	r2, r3
 8001e12:	69fb      	ldr	r3, [r7, #28]
 8001e14:	1c59      	adds	r1, r3, #1
 8001e16:	61f9      	str	r1, [r7, #28]
 8001e18:	f062 027f 	orn	r2, r2, #127	@ 0x7f
 8001e1c:	b2d2      	uxtb	r2, r2
 8001e1e:	701a      	strb	r2, [r3, #0]
 8001e20:	69bb      	ldr	r3, [r7, #24]
 8001e22:	09db      	lsrs	r3, r3, #7
 8001e24:	61bb      	str	r3, [r7, #24]
 8001e26:	69bb      	ldr	r3, [r7, #24]
 8001e28:	2b7f      	cmp	r3, #127	@ 0x7f
 8001e2a:	d8f0      	bhi.n	8001e0e <SEGGER_SYSVIEW_OnTaskCreate+0x36>
 8001e2c:	69fb      	ldr	r3, [r7, #28]
 8001e2e:	1c5a      	adds	r2, r3, #1
 8001e30:	61fa      	str	r2, [r7, #28]
 8001e32:	69ba      	ldr	r2, [r7, #24]
 8001e34:	b2d2      	uxtb	r2, r2
 8001e36:	701a      	strb	r2, [r3, #0]
 8001e38:	69fb      	ldr	r3, [r7, #28]
 8001e3a:	60fb      	str	r3, [r7, #12]
  _SendPacket(pPayloadStart, pPayload, SYSVIEW_EVTID_TASK_CREATE);
 8001e3c:	2208      	movs	r2, #8
 8001e3e:	68f9      	ldr	r1, [r7, #12]
 8001e40:	6938      	ldr	r0, [r7, #16]
 8001e42:	f7ff f897 	bl	8000f74 <_SendPacket>
  RECORD_END();
 8001e46:	697b      	ldr	r3, [r7, #20]
 8001e48:	f383 8811 	msr	BASEPRI, r3
}
 8001e4c:	bf00      	nop
 8001e4e:	3720      	adds	r7, #32
 8001e50:	46bd      	mov	sp, r7
 8001e52:	bd80      	pop	{r7, pc}
 8001e54:	20001620 	.word	0x20001620
 8001e58:	200015f0 	.word	0x200015f0

08001e5c <SEGGER_SYSVIEW_OnTaskStartExec>:
*    when it is ready to execute.
*
*  Parameters
*    TaskId - Task ID of task that started to execute.
*/
void SEGGER_SYSVIEW_OnTaskStartExec(U32 TaskId) {
 8001e5c:	b580      	push	{r7, lr}
 8001e5e:	b088      	sub	sp, #32
 8001e60:	af00      	add	r7, sp, #0
 8001e62:	6078      	str	r0, [r7, #4]
  U8* pPayload;
  U8* pPayloadStart;
  RECORD_START(SEGGER_SYSVIEW_INFO_SIZE + SEGGER_SYSVIEW_QUANTA_U32);
 8001e64:	f3ef 8311 	mrs	r3, BASEPRI
 8001e68:	f04f 0120 	mov.w	r1, #32
 8001e6c:	f381 8811 	msr	BASEPRI, r1
 8001e70:	617b      	str	r3, [r7, #20]
 8001e72:	4819      	ldr	r0, [pc, #100]	@ (8001ed8 <SEGGER_SYSVIEW_OnTaskStartExec+0x7c>)
 8001e74:	f7fe ff91 	bl	8000d9a <_PreparePacket>
 8001e78:	6138      	str	r0, [r7, #16]
  //
  pPayload = pPayloadStart;
 8001e7a:	693b      	ldr	r3, [r7, #16]
 8001e7c:	60fb      	str	r3, [r7, #12]
  TaskId = SHRINK_ID(TaskId);
 8001e7e:	4b17      	ldr	r3, [pc, #92]	@ (8001edc <SEGGER_SYSVIEW_OnTaskStartExec+0x80>)
 8001e80:	691b      	ldr	r3, [r3, #16]
 8001e82:	687a      	ldr	r2, [r7, #4]
 8001e84:	1ad3      	subs	r3, r2, r3
 8001e86:	607b      	str	r3, [r7, #4]
  ENCODE_U32(pPayload, TaskId);
 8001e88:	68fb      	ldr	r3, [r7, #12]
 8001e8a:	61fb      	str	r3, [r7, #28]
 8001e8c:	687b      	ldr	r3, [r7, #4]
 8001e8e:	61bb      	str	r3, [r7, #24]
 8001e90:	e00b      	b.n	8001eaa <SEGGER_SYSVIEW_OnTaskStartExec+0x4e>
 8001e92:	69bb      	ldr	r3, [r7, #24]
 8001e94:	b2da      	uxtb	r2, r3
 8001e96:	69fb      	ldr	r3, [r7, #28]
 8001e98:	1c59      	adds	r1, r3, #1
 8001e9a:	61f9      	str	r1, [r7, #28]
 8001e9c:	f062 027f 	orn	r2, r2, #127	@ 0x7f
 8001ea0:	b2d2      	uxtb	r2, r2
 8001ea2:	701a      	strb	r2, [r3, #0]
 8001ea4:	69bb      	ldr	r3, [r7, #24]
 8001ea6:	09db      	lsrs	r3, r3, #7
 8001ea8:	61bb      	str	r3, [r7, #24]
 8001eaa:	69bb      	ldr	r3, [r7, #24]
 8001eac:	2b7f      	cmp	r3, #127	@ 0x7f
 8001eae:	d8f0      	bhi.n	8001e92 <SEGGER_SYSVIEW_OnTaskStartExec+0x36>
 8001eb0:	69fb      	ldr	r3, [r7, #28]
 8001eb2:	1c5a      	adds	r2, r3, #1
 8001eb4:	61fa      	str	r2, [r7, #28]
 8001eb6:	69ba      	ldr	r2, [r7, #24]
 8001eb8:	b2d2      	uxtb	r2, r2
 8001eba:	701a      	strb	r2, [r3, #0]
 8001ebc:	69fb      	ldr	r3, [r7, #28]
 8001ebe:	60fb      	str	r3, [r7, #12]
  _SendPacket(pPayloadStart, pPayload, SYSVIEW_EVTID_TASK_START_EXEC);
 8001ec0:	2204      	movs	r2, #4
 8001ec2:	68f9      	ldr	r1, [r7, #12]
 8001ec4:	6938      	ldr	r0, [r7, #16]
 8001ec6:	f7ff f855 	bl	8000f74 <_SendPacket>
  RECORD_END();
 8001eca:	697b      	ldr	r3, [r7, #20]
 8001ecc:	f383 8811 	msr	BASEPRI, r3
}
 8001ed0:	bf00      	nop
 8001ed2:	3720      	adds	r7, #32
 8001ed4:	46bd      	mov	sp, r7
 8001ed6:	bd80      	pop	{r7, pc}
 8001ed8:	20001620 	.word	0x20001620
 8001edc:	200015f0 	.word	0x200015f0

08001ee0 <SEGGER_SYSVIEW_OnTaskStartReady>:
*    Record a Task Start Ready event.
*
*  Parameters
*    TaskId - Task ID of task that started to execute.
*/
void SEGGER_SYSVIEW_OnTaskStartReady(U32 TaskId) {
 8001ee0:	b580      	push	{r7, lr}
 8001ee2:	b088      	sub	sp, #32
 8001ee4:	af00      	add	r7, sp, #0
 8001ee6:	6078      	str	r0, [r7, #4]
  U8* pPayload;
  U8* pPayloadStart;
  RECORD_START(SEGGER_SYSVIEW_INFO_SIZE + SEGGER_SYSVIEW_QUANTA_U32);
 8001ee8:	f3ef 8311 	mrs	r3, BASEPRI
 8001eec:	f04f 0120 	mov.w	r1, #32
 8001ef0:	f381 8811 	msr	BASEPRI, r1
 8001ef4:	617b      	str	r3, [r7, #20]
 8001ef6:	4819      	ldr	r0, [pc, #100]	@ (8001f5c <SEGGER_SYSVIEW_OnTaskStartReady+0x7c>)
 8001ef8:	f7fe ff4f 	bl	8000d9a <_PreparePacket>
 8001efc:	6138      	str	r0, [r7, #16]
  //
  pPayload = pPayloadStart;
 8001efe:	693b      	ldr	r3, [r7, #16]
 8001f00:	60fb      	str	r3, [r7, #12]
  TaskId = SHRINK_ID(TaskId);
 8001f02:	4b17      	ldr	r3, [pc, #92]	@ (8001f60 <SEGGER_SYSVIEW_OnTaskStartReady+0x80>)
 8001f04:	691b      	ldr	r3, [r3, #16]
 8001f06:	687a      	ldr	r2, [r7, #4]
 8001f08:	1ad3      	subs	r3, r2, r3
 8001f0a:	607b      	str	r3, [r7, #4]
  ENCODE_U32(pPayload, TaskId);
 8001f0c:	68fb      	ldr	r3, [r7, #12]
 8001f0e:	61fb      	str	r3, [r7, #28]
 8001f10:	687b      	ldr	r3, [r7, #4]
 8001f12:	61bb      	str	r3, [r7, #24]
 8001f14:	e00b      	b.n	8001f2e <SEGGER_SYSVIEW_OnTaskStartReady+0x4e>
 8001f16:	69bb      	ldr	r3, [r7, #24]
 8001f18:	b2da      	uxtb	r2, r3
 8001f1a:	69fb      	ldr	r3, [r7, #28]
 8001f1c:	1c59      	adds	r1, r3, #1
 8001f1e:	61f9      	str	r1, [r7, #28]
 8001f20:	f062 027f 	orn	r2, r2, #127	@ 0x7f
 8001f24:	b2d2      	uxtb	r2, r2
 8001f26:	701a      	strb	r2, [r3, #0]
 8001f28:	69bb      	ldr	r3, [r7, #24]
 8001f2a:	09db      	lsrs	r3, r3, #7
 8001f2c:	61bb      	str	r3, [r7, #24]
 8001f2e:	69bb      	ldr	r3, [r7, #24]
 8001f30:	2b7f      	cmp	r3, #127	@ 0x7f
 8001f32:	d8f0      	bhi.n	8001f16 <SEGGER_SYSVIEW_OnTaskStartReady+0x36>
 8001f34:	69fb      	ldr	r3, [r7, #28]
 8001f36:	1c5a      	adds	r2, r3, #1
 8001f38:	61fa      	str	r2, [r7, #28]
 8001f3a:	69ba      	ldr	r2, [r7, #24]
 8001f3c:	b2d2      	uxtb	r2, r2
 8001f3e:	701a      	strb	r2, [r3, #0]
 8001f40:	69fb      	ldr	r3, [r7, #28]
 8001f42:	60fb      	str	r3, [r7, #12]
  _SendPacket(pPayloadStart, pPayload, SYSVIEW_EVTID_TASK_START_READY);
 8001f44:	2206      	movs	r2, #6
 8001f46:	68f9      	ldr	r1, [r7, #12]
 8001f48:	6938      	ldr	r0, [r7, #16]
 8001f4a:	f7ff f813 	bl	8000f74 <_SendPacket>
  RECORD_END();
 8001f4e:	697b      	ldr	r3, [r7, #20]
 8001f50:	f383 8811 	msr	BASEPRI, r3
}
 8001f54:	bf00      	nop
 8001f56:	3720      	adds	r7, #32
 8001f58:	46bd      	mov	sp, r7
 8001f5a:	bd80      	pop	{r7, pc}
 8001f5c:	20001620 	.word	0x20001620
 8001f60:	200015f0 	.word	0x200015f0

08001f64 <SEGGER_SYSVIEW_ShrinkId>:
*     SEGGER_SYSVIEW_ID_BASE: Lowest Id reported by the application.
*       (i.e. 0x20000000 when all Ids are an address in this RAM)
*     SEGGER_SYSVIEW_ID_SHIFT: Number of bits to shift the Id to
*       save bandwidth. (i.e. 2 when Ids are 4 byte aligned)
*/
U32 SEGGER_SYSVIEW_ShrinkId(U32 Id) {
 8001f64:	b480      	push	{r7}
 8001f66:	b083      	sub	sp, #12
 8001f68:	af00      	add	r7, sp, #0
 8001f6a:	6078      	str	r0, [r7, #4]
  return SHRINK_ID(Id);
 8001f6c:	4b04      	ldr	r3, [pc, #16]	@ (8001f80 <SEGGER_SYSVIEW_ShrinkId+0x1c>)
 8001f6e:	691b      	ldr	r3, [r3, #16]
 8001f70:	687a      	ldr	r2, [r7, #4]
 8001f72:	1ad3      	subs	r3, r2, r3
}
 8001f74:	4618      	mov	r0, r3
 8001f76:	370c      	adds	r7, #12
 8001f78:	46bd      	mov	sp, r7
 8001f7a:	f85d 7b04 	ldr.w	r7, [sp], #4
 8001f7e:	4770      	bx	lr
 8001f80:	200015f0 	.word	0x200015f0

08001f84 <SEGGER_SYSVIEW_SendModule>:
*    Sends the information of a registered module to the host.
*
*  Parameters
*    ModuleId   - Id of the requested module.
*/
void SEGGER_SYSVIEW_SendModule(U8 ModuleId) {
 8001f84:	b580      	push	{r7, lr}
 8001f86:	b08c      	sub	sp, #48	@ 0x30
 8001f88:	af00      	add	r7, sp, #0
 8001f8a:	4603      	mov	r3, r0
 8001f8c:	71fb      	strb	r3, [r7, #7]
  SEGGER_SYSVIEW_MODULE* pModule;
  U32 n;

  if (_pFirstModule != 0) {
 8001f8e:	4b40      	ldr	r3, [pc, #256]	@ (8002090 <SEGGER_SYSVIEW_SendModule+0x10c>)
 8001f90:	681b      	ldr	r3, [r3, #0]
 8001f92:	2b00      	cmp	r3, #0
 8001f94:	d077      	beq.n	8002086 <SEGGER_SYSVIEW_SendModule+0x102>
    pModule = _pFirstModule;
 8001f96:	4b3e      	ldr	r3, [pc, #248]	@ (8002090 <SEGGER_SYSVIEW_SendModule+0x10c>)
 8001f98:	681b      	ldr	r3, [r3, #0]
 8001f9a:	62fb      	str	r3, [r7, #44]	@ 0x2c
    for (n = 0; n < ModuleId; n++) {
 8001f9c:	2300      	movs	r3, #0
 8001f9e:	62bb      	str	r3, [r7, #40]	@ 0x28
 8001fa0:	e008      	b.n	8001fb4 <SEGGER_SYSVIEW_SendModule+0x30>
      pModule = pModule->pNext;
 8001fa2:	6afb      	ldr	r3, [r7, #44]	@ 0x2c
 8001fa4:	691b      	ldr	r3, [r3, #16]
 8001fa6:	62fb      	str	r3, [r7, #44]	@ 0x2c
      if (pModule == 0) {
 8001fa8:	6afb      	ldr	r3, [r7, #44]	@ 0x2c
 8001faa:	2b00      	cmp	r3, #0
 8001fac:	d007      	beq.n	8001fbe <SEGGER_SYSVIEW_SendModule+0x3a>
    for (n = 0; n < ModuleId; n++) {
 8001fae:	6abb      	ldr	r3, [r7, #40]	@ 0x28
 8001fb0:	3301      	adds	r3, #1
 8001fb2:	62bb      	str	r3, [r7, #40]	@ 0x28
 8001fb4:	79fb      	ldrb	r3, [r7, #7]
 8001fb6:	6aba      	ldr	r2, [r7, #40]	@ 0x28
 8001fb8:	429a      	cmp	r2, r3
 8001fba:	d3f2      	bcc.n	8001fa2 <SEGGER_SYSVIEW_SendModule+0x1e>
 8001fbc:	e000      	b.n	8001fc0 <SEGGER_SYSVIEW_SendModule+0x3c>
        break;
 8001fbe:	bf00      	nop
      }
    }
    if (pModule != 0) {
 8001fc0:	6afb      	ldr	r3, [r7, #44]	@ 0x2c
 8001fc2:	2b00      	cmp	r3, #0
 8001fc4:	d055      	beq.n	8002072 <SEGGER_SYSVIEW_SendModule+0xee>
      U8* pPayload;
      U8* pPayloadStart;
      RECORD_START(SEGGER_SYSVIEW_INFO_SIZE + 2 * SEGGER_SYSVIEW_QUANTA_U32 + 1 + SEGGER_SYSVIEW_MAX_STRING_LEN);
 8001fc6:	f3ef 8311 	mrs	r3, BASEPRI
 8001fca:	f04f 0120 	mov.w	r1, #32
 8001fce:	f381 8811 	msr	BASEPRI, r1
 8001fd2:	617b      	str	r3, [r7, #20]
 8001fd4:	482f      	ldr	r0, [pc, #188]	@ (8002094 <SEGGER_SYSVIEW_SendModule+0x110>)
 8001fd6:	f7fe fee0 	bl	8000d9a <_PreparePacket>
 8001fda:	6138      	str	r0, [r7, #16]
      //
      pPayload = pPayloadStart;
 8001fdc:	693b      	ldr	r3, [r7, #16]
 8001fde:	60fb      	str	r3, [r7, #12]
      //
      // Send module description
      // Send event offset and number of events
      //
      ENCODE_U32(pPayload, ModuleId);
 8001fe0:	68fb      	ldr	r3, [r7, #12]
 8001fe2:	627b      	str	r3, [r7, #36]	@ 0x24
 8001fe4:	79fb      	ldrb	r3, [r7, #7]
 8001fe6:	623b      	str	r3, [r7, #32]
 8001fe8:	e00b      	b.n	8002002 <SEGGER_SYSVIEW_SendModule+0x7e>
 8001fea:	6a3b      	ldr	r3, [r7, #32]
 8001fec:	b2da      	uxtb	r2, r3
 8001fee:	6a7b      	ldr	r3, [r7, #36]	@ 0x24
 8001ff0:	1c59      	adds	r1, r3, #1
 8001ff2:	6279      	str	r1, [r7, #36]	@ 0x24
 8001ff4:	f062 027f 	orn	r2, r2, #127	@ 0x7f
 8001ff8:	b2d2      	uxtb	r2, r2
 8001ffa:	701a      	strb	r2, [r3, #0]
 8001ffc:	6a3b      	ldr	r3, [r7, #32]
 8001ffe:	09db      	lsrs	r3, r3, #7
 8002000:	623b      	str	r3, [r7, #32]
 8002002:	6a3b      	ldr	r3, [r7, #32]
 8002004:	2b7f      	cmp	r3, #127	@ 0x7f
 8002006:	d8f0      	bhi.n	8001fea <SEGGER_SYSVIEW_SendModule+0x66>
 8002008:	6a7b      	ldr	r3, [r7, #36]	@ 0x24
 800200a:	1c5a      	adds	r2, r3, #1
 800200c:	627a      	str	r2, [r7, #36]	@ 0x24
 800200e:	6a3a      	ldr	r2, [r7, #32]
 8002010:	b2d2      	uxtb	r2, r2
 8002012:	701a      	strb	r2, [r3, #0]
 8002014:	6a7b      	ldr	r3, [r7, #36]	@ 0x24
 8002016:	60fb      	str	r3, [r7, #12]
      ENCODE_U32(pPayload, (pModule->EventOffset));
 8002018:	68fb      	ldr	r3, [r7, #12]
 800201a:	61fb      	str	r3, [r7, #28]
 800201c:	6afb      	ldr	r3, [r7, #44]	@ 0x2c
 800201e:	689b      	ldr	r3, [r3, #8]
 8002020:	61bb      	str	r3, [r7, #24]
 8002022:	e00b      	b.n	800203c <SEGGER_SYSVIEW_SendModule+0xb8>
 8002024:	69bb      	ldr	r3, [r7, #24]
 8002026:	b2da      	uxtb	r2, r3
 8002028:	69fb      	ldr	r3, [r7, #28]
 800202a:	1c59      	adds	r1, r3, #1
 800202c:	61f9      	str	r1, [r7, #28]
 800202e:	f062 027f 	orn	r2, r2, #127	@ 0x7f
 8002032:	b2d2      	uxtb	r2, r2
 8002034:	701a      	strb	r2, [r3, #0]
 8002036:	69bb      	ldr	r3, [r7, #24]
 8002038:	09db      	lsrs	r3, r3, #7
 800203a:	61bb      	str	r3, [r7, #24]
 800203c:	69bb      	ldr	r3, [r7, #24]
 800203e:	2b7f      	cmp	r3, #127	@ 0x7f
 8002040:	d8f0      	bhi.n	8002024 <SEGGER_SYSVIEW_SendModule+0xa0>
 8002042:	69fb      	ldr	r3, [r7, #28]
 8002044:	1c5a      	adds	r2, r3, #1
 8002046:	61fa      	str	r2, [r7, #28]
 8002048:	69ba      	ldr	r2, [r7, #24]
 800204a:	b2d2      	uxtb	r2, r2
 800204c:	701a      	strb	r2, [r3, #0]
 800204e:	69fb      	ldr	r3, [r7, #28]
 8002050:	60fb      	str	r3, [r7, #12]
      pPayload = _EncodeStr(pPayload, pModule->sModule, SEGGER_SYSVIEW_MAX_STRING_LEN);
 8002052:	6afb      	ldr	r3, [r7, #44]	@ 0x2c
 8002054:	681b      	ldr	r3, [r3, #0]
 8002056:	2280      	movs	r2, #128	@ 0x80
 8002058:	4619      	mov	r1, r3
 800205a:	68f8      	ldr	r0, [r7, #12]
 800205c:	f7fe fe64 	bl	8000d28 <_EncodeStr>
 8002060:	60f8      	str	r0, [r7, #12]
      _SendPacket(pPayloadStart, pPayload, SYSVIEW_EVTID_MODULEDESC);
 8002062:	2216      	movs	r2, #22
 8002064:	68f9      	ldr	r1, [r7, #12]
 8002066:	6938      	ldr	r0, [r7, #16]
 8002068:	f7fe ff84 	bl	8000f74 <_SendPacket>
      RECORD_END();
 800206c:	697b      	ldr	r3, [r7, #20]
 800206e:	f383 8811 	msr	BASEPRI, r3
    }
    if (pModule && pModule->pfSendModuleDesc) {
 8002072:	6afb      	ldr	r3, [r7, #44]	@ 0x2c
 8002074:	2b00      	cmp	r3, #0
 8002076:	d006      	beq.n	8002086 <SEGGER_SYSVIEW_SendModule+0x102>
 8002078:	6afb      	ldr	r3, [r7, #44]	@ 0x2c
 800207a:	68db      	ldr	r3, [r3, #12]
 800207c:	2b00      	cmp	r3, #0
 800207e:	d002      	beq.n	8002086 <SEGGER_SYSVIEW_SendModule+0x102>
      pModule->pfSendModuleDesc();
 8002080:	6afb      	ldr	r3, [r7, #44]	@ 0x2c
 8002082:	68db      	ldr	r3, [r3, #12]
 8002084:	4798      	blx	r3
    }
  }
}
 8002086:	bf00      	nop
 8002088:	3730      	adds	r7, #48	@ 0x30
 800208a:	46bd      	mov	sp, r7
 800208c:	bd80      	pop	{r7, pc}
 800208e:	bf00      	nop
 8002090:	20001618 	.word	0x20001618
 8002094:	20001620 	.word	0x20001620

08002098 <SEGGER_SYSVIEW_SendModuleDescription>:
*
*  Function description
*    Triggers a send of the registered module descriptions.
*
*/
void SEGGER_SYSVIEW_SendModuleDescription(void) {
 8002098:	b580      	push	{r7, lr}
 800209a:	b082      	sub	sp, #8
 800209c:	af00      	add	r7, sp, #0
  SEGGER_SYSVIEW_MODULE* pModule;

  if (_pFirstModule != 0) {
 800209e:	4b0c      	ldr	r3, [pc, #48]	@ (80020d0 <SEGGER_SYSVIEW_SendModuleDescription+0x38>)
 80020a0:	681b      	ldr	r3, [r3, #0]
 80020a2:	2b00      	cmp	r3, #0
 80020a4:	d00f      	beq.n	80020c6 <SEGGER_SYSVIEW_SendModuleDescription+0x2e>
    pModule = _pFirstModule;
 80020a6:	4b0a      	ldr	r3, [pc, #40]	@ (80020d0 <SEGGER_SYSVIEW_SendModuleDescription+0x38>)
 80020a8:	681b      	ldr	r3, [r3, #0]
 80020aa:	607b      	str	r3, [r7, #4]
    do {
      if (pModule->pfSendModuleDesc) {
 80020ac:	687b      	ldr	r3, [r7, #4]
 80020ae:	68db      	ldr	r3, [r3, #12]
 80020b0:	2b00      	cmp	r3, #0
 80020b2:	d002      	beq.n	80020ba <SEGGER_SYSVIEW_SendModuleDescription+0x22>
        pModule->pfSendModuleDesc();
 80020b4:	687b      	ldr	r3, [r7, #4]
 80020b6:	68db      	ldr	r3, [r3, #12]
 80020b8:	4798      	blx	r3
      }
      pModule = pModule->pNext;
 80020ba:	687b      	ldr	r3, [r7, #4]
 80020bc:	691b      	ldr	r3, [r3, #16]
 80020be:	607b      	str	r3, [r7, #4]
    } while (pModule);
 80020c0:	687b      	ldr	r3, [r7, #4]
 80020c2:	2b00      	cmp	r3, #0
 80020c4:	d1f2      	bne.n	80020ac <SEGGER_SYSVIEW_SendModuleDescription+0x14>
  }
}
 80020c6:	bf00      	nop
 80020c8:	3708      	adds	r7, #8
 80020ca:	46bd      	mov	sp, r7
 80020cc:	bd80      	pop	{r7, pc}
 80020ce:	bf00      	nop
 80020d0:	20001618 	.word	0x20001618

080020d4 <SEGGER_SYSVIEW_SendNumModules>:
*       SEGGER_SYSVIEW_SendNumModules()
*
*  Function description
*    Send the number of registered modules to the host.
*/
void SEGGER_SYSVIEW_SendNumModules(void) {
 80020d4:	b580      	push	{r7, lr}
 80020d6:	b086      	sub	sp, #24
 80020d8:	af00      	add	r7, sp, #0
  U8* pPayload;
  U8* pPayloadStart;
  RECORD_START(SEGGER_SYSVIEW_INFO_SIZE + 2*SEGGER_SYSVIEW_QUANTA_U32);
 80020da:	f3ef 8311 	mrs	r3, BASEPRI
 80020de:	f04f 0120 	mov.w	r1, #32
 80020e2:	f381 8811 	msr	BASEPRI, r1
 80020e6:	60fb      	str	r3, [r7, #12]
 80020e8:	4817      	ldr	r0, [pc, #92]	@ (8002148 <SEGGER_SYSVIEW_SendNumModules+0x74>)
 80020ea:	f7fe fe56 	bl	8000d9a <_PreparePacket>
 80020ee:	60b8      	str	r0, [r7, #8]
  pPayload = pPayloadStart;
 80020f0:	68bb      	ldr	r3, [r7, #8]
 80020f2:	607b      	str	r3, [r7, #4]
  ENCODE_U32(pPayload, _NumModules);
 80020f4:	687b      	ldr	r3, [r7, #4]
 80020f6:	617b      	str	r3, [r7, #20]
 80020f8:	4b14      	ldr	r3, [pc, #80]	@ (800214c <SEGGER_SYSVIEW_SendNumModules+0x78>)
 80020fa:	781b      	ldrb	r3, [r3, #0]
 80020fc:	613b      	str	r3, [r7, #16]
 80020fe:	e00b      	b.n	8002118 <SEGGER_SYSVIEW_SendNumModules+0x44>
 8002100:	693b      	ldr	r3, [r7, #16]
 8002102:	b2da      	uxtb	r2, r3
 8002104:	697b      	ldr	r3, [r7, #20]
 8002106:	1c59      	adds	r1, r3, #1
 8002108:	6179      	str	r1, [r7, #20]
 800210a:	f062 027f 	orn	r2, r2, #127	@ 0x7f
 800210e:	b2d2      	uxtb	r2, r2
 8002110:	701a      	strb	r2, [r3, #0]
 8002112:	693b      	ldr	r3, [r7, #16]
 8002114:	09db      	lsrs	r3, r3, #7
 8002116:	613b      	str	r3, [r7, #16]
 8002118:	693b      	ldr	r3, [r7, #16]
 800211a:	2b7f      	cmp	r3, #127	@ 0x7f
 800211c:	d8f0      	bhi.n	8002100 <SEGGER_SYSVIEW_SendNumModules+0x2c>
 800211e:	697b      	ldr	r3, [r7, #20]
 8002120:	1c5a      	adds	r2, r3, #1
 8002122:	617a      	str	r2, [r7, #20]
 8002124:	693a      	ldr	r2, [r7, #16]
 8002126:	b2d2      	uxtb	r2, r2
 8002128:	701a      	strb	r2, [r3, #0]
 800212a:	697b      	ldr	r3, [r7, #20]
 800212c:	607b      	str	r3, [r7, #4]
  _SendPacket(pPayloadStart, pPayload, SYSVIEW_EVTID_NUMMODULES);
 800212e:	221b      	movs	r2, #27
 8002130:	6879      	ldr	r1, [r7, #4]
 8002132:	68b8      	ldr	r0, [r7, #8]
 8002134:	f7fe ff1e 	bl	8000f74 <_SendPacket>
  RECORD_END();
 8002138:	68fb      	ldr	r3, [r7, #12]
 800213a:	f383 8811 	msr	BASEPRI, r3
}
 800213e:	bf00      	nop
 8002140:	3718      	adds	r7, #24
 8002142:	46bd      	mov	sp, r7
 8002144:	bd80      	pop	{r7, pc}
 8002146:	bf00      	nop
 8002148:	20001620 	.word	0x20001620
 800214c:	2000161c 	.word	0x2000161c

08002150 <SEGGER_SYSVIEW_Warn>:
*    Print a warning string to the host.
*
*  Parameters
*    s        - String to sent.
*/
void SEGGER_SYSVIEW_Warn(const char* s) {
 8002150:	b580      	push	{r7, lr}
 8002152:	b08a      	sub	sp, #40	@ 0x28
 8002154:	af00      	add	r7, sp, #0
 8002156:	6078      	str	r0, [r7, #4]
  U8* pPayload;
  U8* pPayloadStart;
  RECORD_START(SEGGER_SYSVIEW_INFO_SIZE + 2 * SEGGER_SYSVIEW_QUANTA_U32 + SEGGER_SYSVIEW_MAX_STRING_LEN);
 8002158:	f3ef 8311 	mrs	r3, BASEPRI
 800215c:	f04f 0120 	mov.w	r1, #32
 8002160:	f381 8811 	msr	BASEPRI, r1
 8002164:	617b      	str	r3, [r7, #20]
 8002166:	4827      	ldr	r0, [pc, #156]	@ (8002204 <SEGGER_SYSVIEW_Warn+0xb4>)
 8002168:	f7fe fe17 	bl	8000d9a <_PreparePacket>
 800216c:	6138      	str	r0, [r7, #16]
  //
  pPayload = _EncodeStr(pPayloadStart, s, SEGGER_SYSVIEW_MAX_STRING_LEN);
 800216e:	2280      	movs	r2, #128	@ 0x80
 8002170:	6879      	ldr	r1, [r7, #4]
 8002172:	6938      	ldr	r0, [r7, #16]
 8002174:	f7fe fdd8 	bl	8000d28 <_EncodeStr>
 8002178:	60f8      	str	r0, [r7, #12]
  ENCODE_U32(pPayload, SEGGER_SYSVIEW_WARNING);
 800217a:	68fb      	ldr	r3, [r7, #12]
 800217c:	627b      	str	r3, [r7, #36]	@ 0x24
 800217e:	2301      	movs	r3, #1
 8002180:	623b      	str	r3, [r7, #32]
 8002182:	e00b      	b.n	800219c <SEGGER_SYSVIEW_Warn+0x4c>
 8002184:	6a3b      	ldr	r3, [r7, #32]
 8002186:	b2da      	uxtb	r2, r3
 8002188:	6a7b      	ldr	r3, [r7, #36]	@ 0x24
 800218a:	1c59      	adds	r1, r3, #1
 800218c:	6279      	str	r1, [r7, #36]	@ 0x24
 800218e:	f062 027f 	orn	r2, r2, #127	@ 0x7f
 8002192:	b2d2      	uxtb	r2, r2
 8002194:	701a      	strb	r2, [r3, #0]
 8002196:	6a3b      	ldr	r3, [r7, #32]
 8002198:	09db      	lsrs	r3, r3, #7
 800219a:	623b      	str	r3, [r7, #32]
 800219c:	6a3b      	ldr	r3, [r7, #32]
 800219e:	2b7f      	cmp	r3, #127	@ 0x7f
 80021a0:	d8f0      	bhi.n	8002184 <SEGGER_SYSVIEW_Warn+0x34>
 80021a2:	6a7b      	ldr	r3, [r7, #36]	@ 0x24
 80021a4:	1c5a      	adds	r2, r3, #1
 80021a6:	627a      	str	r2, [r7, #36]	@ 0x24
 80021a8:	6a3a      	ldr	r2, [r7, #32]
 80021aa:	b2d2      	uxtb	r2, r2
 80021ac:	701a      	strb	r2, [r3, #0]
 80021ae:	6a7b      	ldr	r3, [r7, #36]	@ 0x24
 80021b0:	60fb      	str	r3, [r7, #12]
  ENCODE_U32(pPayload, 0);
 80021b2:	68fb      	ldr	r3, [r7, #12]
 80021b4:	61fb      	str	r3, [r7, #28]
 80021b6:	2300      	movs	r3, #0
 80021b8:	61bb      	str	r3, [r7, #24]
 80021ba:	e00b      	b.n	80021d4 <SEGGER_SYSVIEW_Warn+0x84>
 80021bc:	69bb      	ldr	r3, [r7, #24]
 80021be:	b2da      	uxtb	r2, r3
 80021c0:	69fb      	ldr	r3, [r7, #28]
 80021c2:	1c59      	adds	r1, r3, #1
 80021c4:	61f9      	str	r1, [r7, #28]
 80021c6:	f062 027f 	orn	r2, r2, #127	@ 0x7f
 80021ca:	b2d2      	uxtb	r2, r2
 80021cc:	701a      	strb	r2, [r3, #0]
 80021ce:	69bb      	ldr	r3, [r7, #24]
 80021d0:	09db      	lsrs	r3, r3, #7
 80021d2:	61bb      	str	r3, [r7, #24]
 80021d4:	69bb      	ldr	r3, [r7, #24]
 80021d6:	2b7f      	cmp	r3, #127	@ 0x7f
 80021d8:	d8f0      	bhi.n	80021bc <SEGGER_SYSVIEW_Warn+0x6c>
 80021da:	69fb      	ldr	r3, [r7, #28]
 80021dc:	1c5a      	adds	r2, r3, #1
 80021de:	61fa      	str	r2, [r7, #28]
 80021e0:	69ba      	ldr	r2, [r7, #24]
 80021e2:	b2d2      	uxtb	r2, r2
 80021e4:	701a      	strb	r2, [r3, #0]
 80021e6:	69fb      	ldr	r3, [r7, #28]
 80021e8:	60fb      	str	r3, [r7, #12]
  _SendPacket(pPayloadStart, pPayload, SYSVIEW_EVTID_PRINT_FORMATTED);
 80021ea:	221a      	movs	r2, #26
 80021ec:	68f9      	ldr	r1, [r7, #12]
 80021ee:	6938      	ldr	r0, [r7, #16]
 80021f0:	f7fe fec0 	bl	8000f74 <_SendPacket>
  RECORD_END();
 80021f4:	697b      	ldr	r3, [r7, #20]
 80021f6:	f383 8811 	msr	BASEPRI, r3
}
 80021fa:	bf00      	nop
 80021fc:	3728      	adds	r7, #40	@ 0x28
 80021fe:	46bd      	mov	sp, r7
 8002200:	bd80      	pop	{r7, pc}
 8002202:	bf00      	nop
 8002204:	20001620 	.word	0x20001620

08002208 <_write_r>:
*   Low-level reentrant write function.
*   libc subroutines will use this system routine for output to all files,
*   including stdout.
*   Write data via RTT.
*/
_ssize_t _write_r(struct _reent *r, int file, const void *ptr, size_t len) {
 8002208:	b580      	push	{r7, lr}
 800220a:	b084      	sub	sp, #16
 800220c:	af00      	add	r7, sp, #0
 800220e:	60f8      	str	r0, [r7, #12]
 8002210:	60b9      	str	r1, [r7, #8]
 8002212:	607a      	str	r2, [r7, #4]
 8002214:	603b      	str	r3, [r7, #0]
  (void) file;  /* Not used, avoid warning */
  (void) r;     /* Not used, avoid warning */
  SEGGER_RTT_Write(0, ptr, len);
 8002216:	683a      	ldr	r2, [r7, #0]
 8002218:	6879      	ldr	r1, [r7, #4]
 800221a:	2000      	movs	r0, #0
 800221c:	f7fe fc8e 	bl	8000b3c <SEGGER_RTT_Write>
  return len;
 8002220:	683b      	ldr	r3, [r7, #0]
}
 8002222:	4618      	mov	r0, r3
 8002224:	3710      	adds	r7, #16
 8002226:	46bd      	mov	sp, r7
 8002228:	bd80      	pop	{r7, pc}

0800222a <vListInitialise>:
/*-----------------------------------------------------------
* PUBLIC LIST API documented in list.h
*----------------------------------------------------------*/

void vListInitialise( List_t * const pxList )
{
 800222a:	b580      	push	{r7, lr}
 800222c:	b082      	sub	sp, #8
 800222e:	af00      	add	r7, sp, #0
 8002230:	6078      	str	r0, [r7, #4]
    traceENTER_vListInitialise( pxList );
 8002232:	687b      	ldr	r3, [r7, #4]
 8002234:	4618      	mov	r0, r3
 8002236:	f7ff fe95 	bl	8001f64 <SEGGER_SYSVIEW_ShrinkId>
 800223a:	4603      	mov	r3, r0
 800223c:	4619      	mov	r1, r3
 800223e:	f240 1019 	movw	r0, #281	@ 0x119
 8002242:	f7ff f877 	bl	8001334 <SEGGER_SYSVIEW_RecordU32>

    /* The list structure contains a list item which is used to mark the
     * end of the list.  To initialise the list the list end is inserted
     * as the only list entry. */
    pxList->pxIndex = ( ListItem_t * ) &( pxList->xListEnd );
 8002246:	687b      	ldr	r3, [r7, #4]
 8002248:	f103 0208 	add.w	r2, r3, #8
 800224c:	687b      	ldr	r3, [r7, #4]
 800224e:	605a      	str	r2, [r3, #4]

    listSET_FIRST_LIST_ITEM_INTEGRITY_CHECK_VALUE( &( pxList->xListEnd ) );

    /* The list end value is the highest possible value in the list to
     * ensure it remains at the end of the list. */
    pxList->xListEnd.xItemValue = portMAX_DELAY;
 8002250:	687b      	ldr	r3, [r7, #4]
 8002252:	f04f 32ff 	mov.w	r2, #4294967295
 8002256:	609a      	str	r2, [r3, #8]

    /* The list end next and previous pointers point to itself so we know
     * when the list is empty. */
    pxList->xListEnd.pxNext = ( ListItem_t * ) &( pxList->xListEnd );
 8002258:	687b      	ldr	r3, [r7, #4]
 800225a:	f103 0208 	add.w	r2, r3, #8
 800225e:	687b      	ldr	r3, [r7, #4]
 8002260:	60da      	str	r2, [r3, #12]
    pxList->xListEnd.pxPrevious = ( ListItem_t * ) &( pxList->xListEnd );
 8002262:	687b      	ldr	r3, [r7, #4]
 8002264:	f103 0208 	add.w	r2, r3, #8
 8002268:	687b      	ldr	r3, [r7, #4]
 800226a:	611a      	str	r2, [r3, #16]
        pxList->xListEnd.pxContainer = NULL;
        listSET_SECOND_LIST_ITEM_INTEGRITY_CHECK_VALUE( &( pxList->xListEnd ) );
    }
    #endif

    pxList->uxNumberOfItems = ( UBaseType_t ) 0U;
 800226c:	687b      	ldr	r3, [r7, #4]
 800226e:	2200      	movs	r2, #0
 8002270:	601a      	str	r2, [r3, #0]
    /* Write known values into the list if
     * configUSE_LIST_DATA_INTEGRITY_CHECK_BYTES is set to 1. */
    listSET_LIST_INTEGRITY_CHECK_1_VALUE( pxList );
    listSET_LIST_INTEGRITY_CHECK_2_VALUE( pxList );

    traceRETURN_vListInitialise();
 8002272:	f240 1019 	movw	r0, #281	@ 0x119
 8002276:	f7ff fcff 	bl	8001c78 <SEGGER_SYSVIEW_RecordEndCall>
}
 800227a:	bf00      	nop
 800227c:	3708      	adds	r7, #8
 800227e:	46bd      	mov	sp, r7
 8002280:	bd80      	pop	{r7, pc}

08002282 <vListInitialiseItem>:
/*-----------------------------------------------------------*/

void vListInitialiseItem( ListItem_t * const pxItem )
{
 8002282:	b580      	push	{r7, lr}
 8002284:	b082      	sub	sp, #8
 8002286:	af00      	add	r7, sp, #0
 8002288:	6078      	str	r0, [r7, #4]
    traceENTER_vListInitialiseItem( pxItem );
 800228a:	687b      	ldr	r3, [r7, #4]
 800228c:	4618      	mov	r0, r3
 800228e:	f7ff fe69 	bl	8001f64 <SEGGER_SYSVIEW_ShrinkId>
 8002292:	4603      	mov	r3, r0
 8002294:	4619      	mov	r1, r3
 8002296:	f44f 708d 	mov.w	r0, #282	@ 0x11a
 800229a:	f7ff f84b 	bl	8001334 <SEGGER_SYSVIEW_RecordU32>

    /* Make sure the list item is not recorded as being on a list. */
    pxItem->pxContainer = NULL;
 800229e:	687b      	ldr	r3, [r7, #4]
 80022a0:	2200      	movs	r2, #0
 80022a2:	611a      	str	r2, [r3, #16]
    /* Write known values into the list item if
     * configUSE_LIST_DATA_INTEGRITY_CHECK_BYTES is set to 1. */
    listSET_FIRST_LIST_ITEM_INTEGRITY_CHECK_VALUE( pxItem );
    listSET_SECOND_LIST_ITEM_INTEGRITY_CHECK_VALUE( pxItem );

    traceRETURN_vListInitialiseItem();
 80022a4:	f44f 708d 	mov.w	r0, #282	@ 0x11a
 80022a8:	f7ff fce6 	bl	8001c78 <SEGGER_SYSVIEW_RecordEndCall>
}
 80022ac:	bf00      	nop
 80022ae:	3708      	adds	r7, #8
 80022b0:	46bd      	mov	sp, r7
 80022b2:	bd80      	pop	{r7, pc}

080022b4 <uxListRemove>:
}
/*-----------------------------------------------------------*/


UBaseType_t uxListRemove( ListItem_t * const pxItemToRemove )
{
 80022b4:	b580      	push	{r7, lr}
 80022b6:	b084      	sub	sp, #16
 80022b8:	af00      	add	r7, sp, #0
 80022ba:	6078      	str	r0, [r7, #4]
    /* The list item knows which list it is in.  Obtain the list from the list
     * item. */
    List_t * const pxList = pxItemToRemove->pxContainer;
 80022bc:	687b      	ldr	r3, [r7, #4]
 80022be:	691b      	ldr	r3, [r3, #16]
 80022c0:	60fb      	str	r3, [r7, #12]

    traceENTER_uxListRemove( pxItemToRemove );
 80022c2:	687b      	ldr	r3, [r7, #4]
 80022c4:	4618      	mov	r0, r3
 80022c6:	f7ff fe4d 	bl	8001f64 <SEGGER_SYSVIEW_ShrinkId>
 80022ca:	4603      	mov	r3, r0
 80022cc:	4619      	mov	r1, r3
 80022ce:	f240 101d 	movw	r0, #285	@ 0x11d
 80022d2:	f7ff f82f 	bl	8001334 <SEGGER_SYSVIEW_RecordU32>

    pxItemToRemove->pxNext->pxPrevious = pxItemToRemove->pxPrevious;
 80022d6:	687b      	ldr	r3, [r7, #4]
 80022d8:	685b      	ldr	r3, [r3, #4]
 80022da:	687a      	ldr	r2, [r7, #4]
 80022dc:	6892      	ldr	r2, [r2, #8]
 80022de:	609a      	str	r2, [r3, #8]
    pxItemToRemove->pxPrevious->pxNext = pxItemToRemove->pxNext;
 80022e0:	687b      	ldr	r3, [r7, #4]
 80022e2:	689b      	ldr	r3, [r3, #8]
 80022e4:	687a      	ldr	r2, [r7, #4]
 80022e6:	6852      	ldr	r2, [r2, #4]
 80022e8:	605a      	str	r2, [r3, #4]

    /* Only used during decision coverage testing. */
    mtCOVERAGE_TEST_DELAY();

    /* Make sure the index is left pointing to a valid item. */
    if( pxList->pxIndex == pxItemToRemove )
 80022ea:	68fb      	ldr	r3, [r7, #12]
 80022ec:	685b      	ldr	r3, [r3, #4]
 80022ee:	687a      	ldr	r2, [r7, #4]
 80022f0:	429a      	cmp	r2, r3
 80022f2:	d103      	bne.n	80022fc <uxListRemove+0x48>
    {
        pxList->pxIndex = pxItemToRemove->pxPrevious;
 80022f4:	687b      	ldr	r3, [r7, #4]
 80022f6:	689a      	ldr	r2, [r3, #8]
 80022f8:	68fb      	ldr	r3, [r7, #12]
 80022fa:	605a      	str	r2, [r3, #4]
    else
    {
        mtCOVERAGE_TEST_MARKER();
    }

    pxItemToRemove->pxContainer = NULL;
 80022fc:	687b      	ldr	r3, [r7, #4]
 80022fe:	2200      	movs	r2, #0
 8002300:	611a      	str	r2, [r3, #16]
    ( pxList->uxNumberOfItems ) = ( UBaseType_t ) ( pxList->uxNumberOfItems - 1U );
 8002302:	68fb      	ldr	r3, [r7, #12]
 8002304:	681b      	ldr	r3, [r3, #0]
 8002306:	1e5a      	subs	r2, r3, #1
 8002308:	68fb      	ldr	r3, [r7, #12]
 800230a:	601a      	str	r2, [r3, #0]

    traceRETURN_uxListRemove( pxList->uxNumberOfItems );
 800230c:	68fb      	ldr	r3, [r7, #12]
 800230e:	681b      	ldr	r3, [r3, #0]
 8002310:	4619      	mov	r1, r3
 8002312:	f240 101d 	movw	r0, #285	@ 0x11d
 8002316:	f7ff fceb 	bl	8001cf0 <SEGGER_SYSVIEW_RecordEndCallU32>

    return pxList->uxNumberOfItems;
 800231a:	68fb      	ldr	r3, [r7, #12]
 800231c:	681b      	ldr	r3, [r3, #0]
}
 800231e:	4618      	mov	r0, r3
 8002320:	3710      	adds	r7, #16
 8002322:	46bd      	mov	sp, r7
 8002324:	bd80      	pop	{r7, pc}

08002326 <prvCreateTask>:
                                  const char * const pcName,
                                  const configSTACK_DEPTH_TYPE uxStackDepth,
                                  void * const pvParameters,
                                  UBaseType_t uxPriority,
                                  TaskHandle_t * const pxCreatedTask )
    {
 8002326:	b580      	push	{r7, lr}
 8002328:	b08a      	sub	sp, #40	@ 0x28
 800232a:	af04      	add	r7, sp, #16
 800232c:	60f8      	str	r0, [r7, #12]
 800232e:	60b9      	str	r1, [r7, #8]
 8002330:	607a      	str	r2, [r7, #4]
 8002332:	603b      	str	r3, [r7, #0]

            /* Allocate space for the stack used by the task being created. */
            /* MISRA Ref 11.5.1 [Malloc memory assignment] */
            /* More details at: https://github.com/FreeRTOS/FreeRTOS-Kernel/blob/main/MISRA.md#rule-115 */
            /* coverity[misra_c_2012_rule_11_5_violation] */
            pxStack = pvPortMallocStack( ( ( ( size_t ) uxStackDepth ) * sizeof( StackType_t ) ) );
 8002334:	687b      	ldr	r3, [r7, #4]
 8002336:	009b      	lsls	r3, r3, #2
 8002338:	4618      	mov	r0, r3
 800233a:	f001 f839 	bl	80033b0 <pvPortMalloc>
 800233e:	6138      	str	r0, [r7, #16]

            if( pxStack != NULL )
 8002340:	693b      	ldr	r3, [r7, #16]
 8002342:	2b00      	cmp	r3, #0
 8002344:	d013      	beq.n	800236e <prvCreateTask+0x48>
            {
                /* Allocate space for the TCB. */
                /* MISRA Ref 11.5.1 [Malloc memory assignment] */
                /* More details at: https://github.com/FreeRTOS/FreeRTOS-Kernel/blob/main/MISRA.md#rule-115 */
                /* coverity[misra_c_2012_rule_11_5_violation] */
                pxNewTCB = ( TCB_t * ) pvPortMalloc( sizeof( TCB_t ) );
 8002346:	2054      	movs	r0, #84	@ 0x54
 8002348:	f001 f832 	bl	80033b0 <pvPortMalloc>
 800234c:	6178      	str	r0, [r7, #20]

                if( pxNewTCB != NULL )
 800234e:	697b      	ldr	r3, [r7, #20]
 8002350:	2b00      	cmp	r3, #0
 8002352:	d008      	beq.n	8002366 <prvCreateTask+0x40>
                {
                    ( void ) memset( ( void * ) pxNewTCB, 0x00, sizeof( TCB_t ) );
 8002354:	2254      	movs	r2, #84	@ 0x54
 8002356:	2100      	movs	r1, #0
 8002358:	6978      	ldr	r0, [r7, #20]
 800235a:	f001 fcad 	bl	8003cb8 <memset>

                    /* Store the stack location in the TCB. */
                    pxNewTCB->pxStack = pxStack;
 800235e:	697b      	ldr	r3, [r7, #20]
 8002360:	693a      	ldr	r2, [r7, #16]
 8002362:	631a      	str	r2, [r3, #48]	@ 0x30
 8002364:	e005      	b.n	8002372 <prvCreateTask+0x4c>
                }
                else
                {
                    /* The stack cannot be used as the TCB was not created.  Free
                     * it again. */
                    vPortFreeStack( pxStack );
 8002366:	6938      	ldr	r0, [r7, #16]
 8002368:	f001 f954 	bl	8003614 <vPortFree>
 800236c:	e001      	b.n	8002372 <prvCreateTask+0x4c>
                }
            }
            else
            {
                pxNewTCB = NULL;
 800236e:	2300      	movs	r3, #0
 8002370:	617b      	str	r3, [r7, #20]
            }
        }
        #endif /* portSTACK_GROWTH */

        if( pxNewTCB != NULL )
 8002372:	697b      	ldr	r3, [r7, #20]
 8002374:	2b00      	cmp	r3, #0
 8002376:	d00d      	beq.n	8002394 <prvCreateTask+0x6e>
                 * task was created dynamically in case it is later deleted. */
                pxNewTCB->ucStaticallyAllocated = tskDYNAMICALLY_ALLOCATED_STACK_AND_TCB;
            }
            #endif /* tskSTATIC_AND_DYNAMIC_ALLOCATION_POSSIBLE */

            prvInitialiseNewTask( pxTaskCode, pcName, uxStackDepth, pvParameters, uxPriority, pxCreatedTask, pxNewTCB, NULL );
 8002378:	2300      	movs	r3, #0
 800237a:	9303      	str	r3, [sp, #12]
 800237c:	697b      	ldr	r3, [r7, #20]
 800237e:	9302      	str	r3, [sp, #8]
 8002380:	6a7b      	ldr	r3, [r7, #36]	@ 0x24
 8002382:	9301      	str	r3, [sp, #4]
 8002384:	6a3b      	ldr	r3, [r7, #32]
 8002386:	9300      	str	r3, [sp, #0]
 8002388:	683b      	ldr	r3, [r7, #0]
 800238a:	687a      	ldr	r2, [r7, #4]
 800238c:	68b9      	ldr	r1, [r7, #8]
 800238e:	68f8      	ldr	r0, [r7, #12]
 8002390:	f000 f84b 	bl	800242a <prvInitialiseNewTask>
        }

        return pxNewTCB;
 8002394:	697b      	ldr	r3, [r7, #20]
    }
 8002396:	4618      	mov	r0, r3
 8002398:	3718      	adds	r7, #24
 800239a:	46bd      	mov	sp, r7
 800239c:	bd80      	pop	{r7, pc}

0800239e <xTaskCreate>:
                            const char * const pcName,
                            const configSTACK_DEPTH_TYPE uxStackDepth,
                            void * const pvParameters,
                            UBaseType_t uxPriority,
                            TaskHandle_t * const pxCreatedTask )
    {
 800239e:	b5f0      	push	{r4, r5, r6, r7, lr}
 80023a0:	b08b      	sub	sp, #44	@ 0x2c
 80023a2:	af04      	add	r7, sp, #16
 80023a4:	60f8      	str	r0, [r7, #12]
 80023a6:	60b9      	str	r1, [r7, #8]
 80023a8:	607a      	str	r2, [r7, #4]
 80023aa:	603b      	str	r3, [r7, #0]
        TCB_t * pxNewTCB;
        BaseType_t xReturn;

        traceENTER_xTaskCreate( pxTaskCode, pcName, uxStackDepth, pvParameters, uxPriority, pxCreatedTask );
 80023ac:	68fb      	ldr	r3, [r7, #12]
 80023ae:	4618      	mov	r0, r3
 80023b0:	f7ff fdd8 	bl	8001f64 <SEGGER_SYSVIEW_ShrinkId>
 80023b4:	4605      	mov	r5, r0
 80023b6:	68bb      	ldr	r3, [r7, #8]
 80023b8:	4618      	mov	r0, r3
 80023ba:	f7ff fdd3 	bl	8001f64 <SEGGER_SYSVIEW_ShrinkId>
 80023be:	4606      	mov	r6, r0
 80023c0:	683b      	ldr	r3, [r7, #0]
 80023c2:	4618      	mov	r0, r3
 80023c4:	f7ff fdce 	bl	8001f64 <SEGGER_SYSVIEW_ShrinkId>
 80023c8:	4604      	mov	r4, r0
 80023ca:	6b7b      	ldr	r3, [r7, #52]	@ 0x34
 80023cc:	4618      	mov	r0, r3
 80023ce:	f7ff fdc9 	bl	8001f64 <SEGGER_SYSVIEW_ShrinkId>
 80023d2:	4603      	mov	r3, r0
 80023d4:	9302      	str	r3, [sp, #8]
 80023d6:	6b3b      	ldr	r3, [r7, #48]	@ 0x30
 80023d8:	9301      	str	r3, [sp, #4]
 80023da:	9400      	str	r4, [sp, #0]
 80023dc:	687b      	ldr	r3, [r7, #4]
 80023de:	4632      	mov	r2, r6
 80023e0:	4629      	mov	r1, r5
 80023e2:	20c2      	movs	r0, #194	@ 0xc2
 80023e4:	f7ff f83c 	bl	8001460 <SEGGER_SYSVIEW_RecordU32x6>

 pxNewTCB = prvCreateTask( pxTaskCode, pcName, uxStackDepth, pvParameters, uxPriority, pxCreatedTask );
 80023e8:	6b7b      	ldr	r3, [r7, #52]	@ 0x34
 80023ea:	9301      	str	r3, [sp, #4]
 80023ec:	6b3b      	ldr	r3, [r7, #48]	@ 0x30
 80023ee:	9300      	str	r3, [sp, #0]
 80023f0:	683b      	ldr	r3, [r7, #0]
 80023f2:	687a      	ldr	r2, [r7, #4]
 80023f4:	68b9      	ldr	r1, [r7, #8]
 80023f6:	68f8      	ldr	r0, [r7, #12]
 80023f8:	f7ff ff95 	bl	8002326 <prvCreateTask>
 80023fc:	6138      	str	r0, [r7, #16]

        if( pxNewTCB != NULL )
 80023fe:	693b      	ldr	r3, [r7, #16]
 8002400:	2b00      	cmp	r3, #0
 8002402:	d005      	beq.n	8002410 <xTaskCreate+0x72>
                /* Set the task's affinity before scheduling it. */
                pxNewTCB->uxCoreAffinityMask = configTASK_DEFAULT_CORE_AFFINITY;
            }
            #endif

            prvAddNewTaskToReadyList( pxNewTCB );
 8002404:	6938      	ldr	r0, [r7, #16]
 8002406:	f000 f89d 	bl	8002544 <prvAddNewTaskToReadyList>
            xReturn = pdPASS;
 800240a:	2301      	movs	r3, #1
 800240c:	617b      	str	r3, [r7, #20]
 800240e:	e002      	b.n	8002416 <xTaskCreate+0x78>
        }
        else
        {
            xReturn = errCOULD_NOT_ALLOCATE_REQUIRED_MEMORY;
 8002410:	f04f 33ff 	mov.w	r3, #4294967295
 8002414:	617b      	str	r3, [r7, #20]
        }

        traceRETURN_xTaskCreate( xReturn );
 8002416:	697b      	ldr	r3, [r7, #20]
 8002418:	4619      	mov	r1, r3
 800241a:	20c2      	movs	r0, #194	@ 0xc2
 800241c:	f7ff fc68 	bl	8001cf0 <SEGGER_SYSVIEW_RecordEndCallU32>

        return xReturn;
 8002420:	697b      	ldr	r3, [r7, #20]
    }
 8002422:	4618      	mov	r0, r3
 8002424:	371c      	adds	r7, #28
 8002426:	46bd      	mov	sp, r7
 8002428:	bdf0      	pop	{r4, r5, r6, r7, pc}

0800242a <prvInitialiseNewTask>:
                                  void * const pvParameters,
                                  UBaseType_t uxPriority,
                                  TaskHandle_t * const pxCreatedTask,
                                  TCB_t * pxNewTCB,
                                  const MemoryRegion_t * const xRegions )
{
 800242a:	b580      	push	{r7, lr}
 800242c:	b088      	sub	sp, #32
 800242e:	af00      	add	r7, sp, #0
 8002430:	60f8      	str	r0, [r7, #12]
 8002432:	60b9      	str	r1, [r7, #8]
 8002434:	607a      	str	r2, [r7, #4]
 8002436:	603b      	str	r3, [r7, #0]

    /* Avoid dependency on memset() if it is not required. */
    #if ( tskSET_NEW_STACKS_TO_KNOWN_VALUE == 1 )
    {
        /* Fill the stack with a known value to assist debugging. */
        ( void ) memset( pxNewTCB->pxStack, ( int ) tskSTACK_FILL_BYTE, ( size_t ) uxStackDepth * sizeof( StackType_t ) );
 8002438:	6b3b      	ldr	r3, [r7, #48]	@ 0x30
 800243a:	6b18      	ldr	r0, [r3, #48]	@ 0x30
 800243c:	687b      	ldr	r3, [r7, #4]
 800243e:	009b      	lsls	r3, r3, #2
 8002440:	461a      	mov	r2, r3
 8002442:	21a5      	movs	r1, #165	@ 0xa5
 8002444:	f001 fc38 	bl	8003cb8 <memset>
     * grows from high memory to low (as per the 80x86) or vice versa.
     * portSTACK_GROWTH is used to make the result positive or negative as required
     * by the port. */
    #if ( portSTACK_GROWTH < 0 )
    {
        pxTopOfStack = &( pxNewTCB->pxStack[ uxStackDepth - ( configSTACK_DEPTH_TYPE ) 1 ] );
 8002448:	6b3b      	ldr	r3, [r7, #48]	@ 0x30
 800244a:	6b1a      	ldr	r2, [r3, #48]	@ 0x30
 800244c:	687b      	ldr	r3, [r7, #4]
 800244e:	f103 4380 	add.w	r3, r3, #1073741824	@ 0x40000000
 8002452:	3b01      	subs	r3, #1
 8002454:	009b      	lsls	r3, r3, #2
 8002456:	4413      	add	r3, r2
 8002458:	61bb      	str	r3, [r7, #24]
        pxTopOfStack = ( StackType_t * ) ( ( ( portPOINTER_SIZE_TYPE ) pxTopOfStack ) & ( ~( ( portPOINTER_SIZE_TYPE ) portBYTE_ALIGNMENT_MASK ) ) );
 800245a:	69bb      	ldr	r3, [r7, #24]
 800245c:	f023 0307 	bic.w	r3, r3, #7
 8002460:	61bb      	str	r3, [r7, #24]

        /* Check the alignment of the calculated top of stack is correct. */
        configASSERT( ( ( ( portPOINTER_SIZE_TYPE ) pxTopOfStack & ( portPOINTER_SIZE_TYPE ) portBYTE_ALIGNMENT_MASK ) == 0U ) );
 8002462:	69bb      	ldr	r3, [r7, #24]
 8002464:	f003 0307 	and.w	r3, r3, #7
 8002468:	2b00      	cmp	r3, #0
 800246a:	d00b      	beq.n	8002484 <prvInitialiseNewTask+0x5a>
    __asm volatile
 800246c:	f04f 0350 	mov.w	r3, #80	@ 0x50
 8002470:	f383 8811 	msr	BASEPRI, r3
 8002474:	f3bf 8f6f 	isb	sy
 8002478:	f3bf 8f4f 	dsb	sy
 800247c:	617b      	str	r3, [r7, #20]
}
 800247e:	bf00      	nop
 8002480:	bf00      	nop
 8002482:	e7fd      	b.n	8002480 <prvInitialiseNewTask+0x56>
        pxNewTCB->pxEndOfStack = pxNewTCB->pxStack + ( uxStackDepth - ( configSTACK_DEPTH_TYPE ) 1 );
    }
    #endif /* portSTACK_GROWTH */

    /* Store the task name in the TCB. */
    if( pcName != NULL )
 8002484:	68bb      	ldr	r3, [r7, #8]
 8002486:	2b00      	cmp	r3, #0
 8002488:	d01e      	beq.n	80024c8 <prvInitialiseNewTask+0x9e>
    {
        for( x = ( UBaseType_t ) 0; x < ( UBaseType_t ) configMAX_TASK_NAME_LEN; x++ )
 800248a:	2300      	movs	r3, #0
 800248c:	61fb      	str	r3, [r7, #28]
 800248e:	e012      	b.n	80024b6 <prvInitialiseNewTask+0x8c>
        {
            pxNewTCB->pcTaskName[ x ] = pcName[ x ];
 8002490:	68ba      	ldr	r2, [r7, #8]
 8002492:	69fb      	ldr	r3, [r7, #28]
 8002494:	4413      	add	r3, r2
 8002496:	7819      	ldrb	r1, [r3, #0]
 8002498:	6b3a      	ldr	r2, [r7, #48]	@ 0x30
 800249a:	69fb      	ldr	r3, [r7, #28]
 800249c:	4413      	add	r3, r2
 800249e:	3334      	adds	r3, #52	@ 0x34
 80024a0:	460a      	mov	r2, r1
 80024a2:	701a      	strb	r2, [r3, #0]

            /* Don't copy all configMAX_TASK_NAME_LEN if the string is shorter than
             * configMAX_TASK_NAME_LEN characters just in case the memory after the
             * string is not accessible (extremely unlikely). */
            if( pcName[ x ] == ( char ) 0x00 )
 80024a4:	68ba      	ldr	r2, [r7, #8]
 80024a6:	69fb      	ldr	r3, [r7, #28]
 80024a8:	4413      	add	r3, r2
 80024aa:	781b      	ldrb	r3, [r3, #0]
 80024ac:	2b00      	cmp	r3, #0
 80024ae:	d006      	beq.n	80024be <prvInitialiseNewTask+0x94>
        for( x = ( UBaseType_t ) 0; x < ( UBaseType_t ) configMAX_TASK_NAME_LEN; x++ )
 80024b0:	69fb      	ldr	r3, [r7, #28]
 80024b2:	3301      	adds	r3, #1
 80024b4:	61fb      	str	r3, [r7, #28]
 80024b6:	69fb      	ldr	r3, [r7, #28]
 80024b8:	2b0f      	cmp	r3, #15
 80024ba:	d9e9      	bls.n	8002490 <prvInitialiseNewTask+0x66>
 80024bc:	e000      	b.n	80024c0 <prvInitialiseNewTask+0x96>
            {
                break;
 80024be:	bf00      	nop
            }
        }

        /* Ensure the name string is terminated in the case that the string length
         * was greater or equal to configMAX_TASK_NAME_LEN. */
        pxNewTCB->pcTaskName[ configMAX_TASK_NAME_LEN - 1U ] = '\0';
 80024c0:	6b3b      	ldr	r3, [r7, #48]	@ 0x30
 80024c2:	2200      	movs	r2, #0
 80024c4:	f883 2043 	strb.w	r2, [r3, #67]	@ 0x43
    {
        mtCOVERAGE_TEST_MARKER();
    }

    /* This is used as an array index so must ensure it's not too large. */
    configASSERT( uxPriority < configMAX_PRIORITIES );
 80024c8:	6abb      	ldr	r3, [r7, #40]	@ 0x28
 80024ca:	2b06      	cmp	r3, #6
 80024cc:	d90b      	bls.n	80024e6 <prvInitialiseNewTask+0xbc>
    __asm volatile
 80024ce:	f04f 0350 	mov.w	r3, #80	@ 0x50
 80024d2:	f383 8811 	msr	BASEPRI, r3
 80024d6:	f3bf 8f6f 	isb	sy
 80024da:	f3bf 8f4f 	dsb	sy
 80024de:	613b      	str	r3, [r7, #16]
}
 80024e0:	bf00      	nop
 80024e2:	bf00      	nop
 80024e4:	e7fd      	b.n	80024e2 <prvInitialiseNewTask+0xb8>

    if( uxPriority >= ( UBaseType_t ) configMAX_PRIORITIES )
 80024e6:	6abb      	ldr	r3, [r7, #40]	@ 0x28
 80024e8:	2b06      	cmp	r3, #6
 80024ea:	d901      	bls.n	80024f0 <prvInitialiseNewTask+0xc6>
    {
        uxPriority = ( UBaseType_t ) configMAX_PRIORITIES - ( UBaseType_t ) 1U;
 80024ec:	2306      	movs	r3, #6
 80024ee:	62bb      	str	r3, [r7, #40]	@ 0x28
    else
    {
        mtCOVERAGE_TEST_MARKER();
    }

    pxNewTCB->uxPriority = uxPriority;
 80024f0:	6b3b      	ldr	r3, [r7, #48]	@ 0x30
 80024f2:	6aba      	ldr	r2, [r7, #40]	@ 0x28
 80024f4:	62da      	str	r2, [r3, #44]	@ 0x2c
    {
        pxNewTCB->uxBasePriority = uxPriority;
    }
    #endif /* configUSE_MUTEXES */

    vListInitialiseItem( &( pxNewTCB->xStateListItem ) );
 80024f6:	6b3b      	ldr	r3, [r7, #48]	@ 0x30
 80024f8:	3304      	adds	r3, #4
 80024fa:	4618      	mov	r0, r3
 80024fc:	f7ff fec1 	bl	8002282 <vListInitialiseItem>
    vListInitialiseItem( &( pxNewTCB->xEventListItem ) );
 8002500:	6b3b      	ldr	r3, [r7, #48]	@ 0x30
 8002502:	3318      	adds	r3, #24
 8002504:	4618      	mov	r0, r3
 8002506:	f7ff febc 	bl	8002282 <vListInitialiseItem>

    /* Set the pxNewTCB as a link back from the ListItem_t.  This is so we can get
     * back to  the containing TCB from a generic item in a list. */
    listSET_LIST_ITEM_OWNER( &( pxNewTCB->xStateListItem ), pxNewTCB );
 800250a:	6b3b      	ldr	r3, [r7, #48]	@ 0x30
 800250c:	6b3a      	ldr	r2, [r7, #48]	@ 0x30
 800250e:	611a      	str	r2, [r3, #16]

    /* Event lists are always in priority order. */
    listSET_LIST_ITEM_VALUE( &( pxNewTCB->xEventListItem ), ( TickType_t ) configMAX_PRIORITIES - ( TickType_t ) uxPriority );
 8002510:	6abb      	ldr	r3, [r7, #40]	@ 0x28
 8002512:	f1c3 0207 	rsb	r2, r3, #7
 8002516:	6b3b      	ldr	r3, [r7, #48]	@ 0x30
 8002518:	619a      	str	r2, [r3, #24]
    listSET_LIST_ITEM_OWNER( &( pxNewTCB->xEventListItem ), pxNewTCB );
 800251a:	6b3b      	ldr	r3, [r7, #48]	@ 0x30
 800251c:	6b3a      	ldr	r2, [r7, #48]	@ 0x30
 800251e:	625a      	str	r2, [r3, #36]	@ 0x24
            }
            #endif /* portSTACK_GROWTH */
        }
        #else /* portHAS_STACK_OVERFLOW_CHECKING */
        {
            pxNewTCB->pxTopOfStack = pxPortInitialiseStack( pxTopOfStack, pxTaskCode, pvParameters );
 8002520:	683a      	ldr	r2, [r7, #0]
 8002522:	68f9      	ldr	r1, [r7, #12]
 8002524:	69b8      	ldr	r0, [r7, #24]
 8002526:	f000 fc99 	bl	8002e5c <pxPortInitialiseStack>
 800252a:	4602      	mov	r2, r0
 800252c:	6b3b      	ldr	r3, [r7, #48]	@ 0x30
 800252e:	601a      	str	r2, [r3, #0]
            pxNewTCB->uxTaskAttributes |= taskATTRIBUTE_IS_IDLE;
        }
    }
    #endif /* #if ( configNUMBER_OF_CORES > 1 ) */

    if( pxCreatedTask != NULL )
 8002530:	6afb      	ldr	r3, [r7, #44]	@ 0x2c
 8002532:	2b00      	cmp	r3, #0
 8002534:	d002      	beq.n	800253c <prvInitialiseNewTask+0x112>
    {
        /* Pass the handle out in an anonymous way.  The handle can be used to
         * change the created task's priority, delete the created task, etc.*/
        *pxCreatedTask = ( TaskHandle_t ) pxNewTCB;
 8002536:	6afb      	ldr	r3, [r7, #44]	@ 0x2c
 8002538:	6b3a      	ldr	r2, [r7, #48]	@ 0x30
 800253a:	601a      	str	r2, [r3, #0]
    }
    else
    {
        mtCOVERAGE_TEST_MARKER();
    }
}
 800253c:	bf00      	nop
 800253e:	3720      	adds	r7, #32
 8002540:	46bd      	mov	sp, r7
 8002542:	bd80      	pop	{r7, pc}

08002544 <prvAddNewTaskToReadyList>:
/*-----------------------------------------------------------*/

#if ( configNUMBER_OF_CORES == 1 )

    static void prvAddNewTaskToReadyList( TCB_t * pxNewTCB )
    {
 8002544:	b5b0      	push	{r4, r5, r7, lr}
 8002546:	b086      	sub	sp, #24
 8002548:	af02      	add	r7, sp, #8
 800254a:	6078      	str	r0, [r7, #4]
        /* Ensure interrupts don't access the task lists while the lists are being
         * updated. */
        taskENTER_CRITICAL();
 800254c:	f000 fe02 	bl	8003154 <vPortEnterCritical>
        {
            uxCurrentNumberOfTasks = ( UBaseType_t ) ( uxCurrentNumberOfTasks + 1U );
 8002550:	4b48      	ldr	r3, [pc, #288]	@ (8002674 <prvAddNewTaskToReadyList+0x130>)
 8002552:	681b      	ldr	r3, [r3, #0]
 8002554:	3301      	adds	r3, #1
 8002556:	4a47      	ldr	r2, [pc, #284]	@ (8002674 <prvAddNewTaskToReadyList+0x130>)
 8002558:	6013      	str	r3, [r2, #0]

            if( pxCurrentTCB == NULL )
 800255a:	4b47      	ldr	r3, [pc, #284]	@ (8002678 <prvAddNewTaskToReadyList+0x134>)
 800255c:	681b      	ldr	r3, [r3, #0]
 800255e:	2b00      	cmp	r3, #0
 8002560:	d109      	bne.n	8002576 <prvAddNewTaskToReadyList+0x32>
            {
                /* There are no other tasks, or all the other tasks are in
                 * the suspended state - make this the current task. */
                pxCurrentTCB = pxNewTCB;
 8002562:	4a45      	ldr	r2, [pc, #276]	@ (8002678 <prvAddNewTaskToReadyList+0x134>)
 8002564:	687b      	ldr	r3, [r7, #4]
 8002566:	6013      	str	r3, [r2, #0]

                if( uxCurrentNumberOfTasks == ( UBaseType_t ) 1 )
 8002568:	4b42      	ldr	r3, [pc, #264]	@ (8002674 <prvAddNewTaskToReadyList+0x130>)
 800256a:	681b      	ldr	r3, [r3, #0]
 800256c:	2b01      	cmp	r3, #1
 800256e:	d110      	bne.n	8002592 <prvAddNewTaskToReadyList+0x4e>
                {
                    /* This is the first task to be created so do the preliminary
                     * initialisation required.  We will not recover if this call
                     * fails, but we will report the failure. */
                    prvInitialiseTaskLists();
 8002570:	f000 fbda 	bl	8002d28 <prvInitialiseTaskLists>
 8002574:	e00d      	b.n	8002592 <prvAddNewTaskToReadyList+0x4e>
            else
            {
                /* If the scheduler is not already running, make this task the
                 * current task if it is the highest priority task to be created
                 * so far. */
                if( xSchedulerRunning == pdFALSE )
 8002576:	4b41      	ldr	r3, [pc, #260]	@ (800267c <prvAddNewTaskToReadyList+0x138>)
 8002578:	681b      	ldr	r3, [r3, #0]
 800257a:	2b00      	cmp	r3, #0
 800257c:	d109      	bne.n	8002592 <prvAddNewTaskToReadyList+0x4e>
                {
                    if( pxCurrentTCB->uxPriority <= pxNewTCB->uxPriority )
 800257e:	4b3e      	ldr	r3, [pc, #248]	@ (8002678 <prvAddNewTaskToReadyList+0x134>)
 8002580:	681b      	ldr	r3, [r3, #0]
 8002582:	6ada      	ldr	r2, [r3, #44]	@ 0x2c
 8002584:	687b      	ldr	r3, [r7, #4]
 8002586:	6adb      	ldr	r3, [r3, #44]	@ 0x2c
 8002588:	429a      	cmp	r2, r3
 800258a:	d802      	bhi.n	8002592 <prvAddNewTaskToReadyList+0x4e>
                    {
                        pxCurrentTCB = pxNewTCB;
 800258c:	4a3a      	ldr	r2, [pc, #232]	@ (8002678 <prvAddNewTaskToReadyList+0x134>)
 800258e:	687b      	ldr	r3, [r7, #4]
 8002590:	6013      	str	r3, [r2, #0]
                {
                    mtCOVERAGE_TEST_MARKER();
                }
            }

            uxTaskNumber++;
 8002592:	4b3b      	ldr	r3, [pc, #236]	@ (8002680 <prvAddNewTaskToReadyList+0x13c>)
 8002594:	681b      	ldr	r3, [r3, #0]
 8002596:	3301      	adds	r3, #1
 8002598:	4a39      	ldr	r2, [pc, #228]	@ (8002680 <prvAddNewTaskToReadyList+0x13c>)
 800259a:	6013      	str	r3, [r2, #0]

            #if ( configUSE_TRACE_FACILITY == 1 )
            {
                /* Add a counter into the TCB for tracing only. */
                pxNewTCB->uxTCBNumber = uxTaskNumber;
 800259c:	4b38      	ldr	r3, [pc, #224]	@ (8002680 <prvAddNewTaskToReadyList+0x13c>)
 800259e:	681a      	ldr	r2, [r3, #0]
 80025a0:	687b      	ldr	r3, [r7, #4]
 80025a2:	645a      	str	r2, [r3, #68]	@ 0x44
            }
            #endif /* configUSE_TRACE_FACILITY */
            traceTASK_CREATE( pxNewTCB );
 80025a4:	687b      	ldr	r3, [r7, #4]
 80025a6:	2b00      	cmp	r3, #0
 80025a8:	d016      	beq.n	80025d8 <prvAddNewTaskToReadyList+0x94>
 80025aa:	687b      	ldr	r3, [r7, #4]
 80025ac:	4618      	mov	r0, r3
 80025ae:	f7ff fc13 	bl	8001dd8 <SEGGER_SYSVIEW_OnTaskCreate>
 80025b2:	6878      	ldr	r0, [r7, #4]
 80025b4:	687b      	ldr	r3, [r7, #4]
 80025b6:	f103 0134 	add.w	r1, r3, #52	@ 0x34
 80025ba:	687b      	ldr	r3, [r7, #4]
 80025bc:	6ada      	ldr	r2, [r3, #44]	@ 0x2c
 80025be:	687b      	ldr	r3, [r7, #4]
 80025c0:	6b1b      	ldr	r3, [r3, #48]	@ 0x30
 80025c2:	461d      	mov	r5, r3
 80025c4:	687b      	ldr	r3, [r7, #4]
 80025c6:	681b      	ldr	r3, [r3, #0]
 80025c8:	461c      	mov	r4, r3
 80025ca:	687b      	ldr	r3, [r7, #4]
 80025cc:	6b1b      	ldr	r3, [r3, #48]	@ 0x30
 80025ce:	1ae3      	subs	r3, r4, r3
 80025d0:	9300      	str	r3, [sp, #0]
 80025d2:	462b      	mov	r3, r5
 80025d4:	f7fe f830 	bl	8000638 <SYSVIEW_AddTask>

            prvAddTaskToReadyList( pxNewTCB );
 80025d8:	687b      	ldr	r3, [r7, #4]
 80025da:	4618      	mov	r0, r3
 80025dc:	f7ff fc80 	bl	8001ee0 <SEGGER_SYSVIEW_OnTaskStartReady>
 80025e0:	687b      	ldr	r3, [r7, #4]
 80025e2:	6adb      	ldr	r3, [r3, #44]	@ 0x2c
 80025e4:	2201      	movs	r2, #1
 80025e6:	409a      	lsls	r2, r3
 80025e8:	4b26      	ldr	r3, [pc, #152]	@ (8002684 <prvAddNewTaskToReadyList+0x140>)
 80025ea:	681b      	ldr	r3, [r3, #0]
 80025ec:	4313      	orrs	r3, r2
 80025ee:	4a25      	ldr	r2, [pc, #148]	@ (8002684 <prvAddNewTaskToReadyList+0x140>)
 80025f0:	6013      	str	r3, [r2, #0]
 80025f2:	687b      	ldr	r3, [r7, #4]
 80025f4:	6ada      	ldr	r2, [r3, #44]	@ 0x2c
 80025f6:	4924      	ldr	r1, [pc, #144]	@ (8002688 <prvAddNewTaskToReadyList+0x144>)
 80025f8:	4613      	mov	r3, r2
 80025fa:	009b      	lsls	r3, r3, #2
 80025fc:	4413      	add	r3, r2
 80025fe:	009b      	lsls	r3, r3, #2
 8002600:	440b      	add	r3, r1
 8002602:	3304      	adds	r3, #4
 8002604:	681b      	ldr	r3, [r3, #0]
 8002606:	60fb      	str	r3, [r7, #12]
 8002608:	687b      	ldr	r3, [r7, #4]
 800260a:	68fa      	ldr	r2, [r7, #12]
 800260c:	609a      	str	r2, [r3, #8]
 800260e:	68fb      	ldr	r3, [r7, #12]
 8002610:	689a      	ldr	r2, [r3, #8]
 8002612:	687b      	ldr	r3, [r7, #4]
 8002614:	60da      	str	r2, [r3, #12]
 8002616:	68fb      	ldr	r3, [r7, #12]
 8002618:	689b      	ldr	r3, [r3, #8]
 800261a:	687a      	ldr	r2, [r7, #4]
 800261c:	3204      	adds	r2, #4
 800261e:	605a      	str	r2, [r3, #4]
 8002620:	687b      	ldr	r3, [r7, #4]
 8002622:	1d1a      	adds	r2, r3, #4
 8002624:	68fb      	ldr	r3, [r7, #12]
 8002626:	609a      	str	r2, [r3, #8]
 8002628:	687b      	ldr	r3, [r7, #4]
 800262a:	6ada      	ldr	r2, [r3, #44]	@ 0x2c
 800262c:	4613      	mov	r3, r2
 800262e:	009b      	lsls	r3, r3, #2
 8002630:	4413      	add	r3, r2
 8002632:	009b      	lsls	r3, r3, #2
 8002634:	4a14      	ldr	r2, [pc, #80]	@ (8002688 <prvAddNewTaskToReadyList+0x144>)
 8002636:	441a      	add	r2, r3
 8002638:	687b      	ldr	r3, [r7, #4]
 800263a:	615a      	str	r2, [r3, #20]
 800263c:	687b      	ldr	r3, [r7, #4]
 800263e:	6ada      	ldr	r2, [r3, #44]	@ 0x2c
 8002640:	4911      	ldr	r1, [pc, #68]	@ (8002688 <prvAddNewTaskToReadyList+0x144>)
 8002642:	4613      	mov	r3, r2
 8002644:	009b      	lsls	r3, r3, #2
 8002646:	4413      	add	r3, r2
 8002648:	009b      	lsls	r3, r3, #2
 800264a:	440b      	add	r3, r1
 800264c:	681b      	ldr	r3, [r3, #0]
 800264e:	687a      	ldr	r2, [r7, #4]
 8002650:	6ad2      	ldr	r2, [r2, #44]	@ 0x2c
 8002652:	1c59      	adds	r1, r3, #1
 8002654:	480c      	ldr	r0, [pc, #48]	@ (8002688 <prvAddNewTaskToReadyList+0x144>)
 8002656:	4613      	mov	r3, r2
 8002658:	009b      	lsls	r3, r3, #2
 800265a:	4413      	add	r3, r2
 800265c:	009b      	lsls	r3, r3, #2
 800265e:	4403      	add	r3, r0
 8002660:	6019      	str	r1, [r3, #0]

            portSETUP_TCB( pxNewTCB );
        }
        taskEXIT_CRITICAL();
 8002662:	f000 fda9 	bl	80031b8 <vPortExitCritical>

        if( xSchedulerRunning != pdFALSE )
 8002666:	4b05      	ldr	r3, [pc, #20]	@ (800267c <prvAddNewTaskToReadyList+0x138>)
 8002668:	681b      	ldr	r3, [r3, #0]
        }
        else
        {
            mtCOVERAGE_TEST_MARKER();
        }
    }
 800266a:	bf00      	nop
 800266c:	3710      	adds	r7, #16
 800266e:	46bd      	mov	sp, r7
 8002670:	bdb0      	pop	{r4, r5, r7, pc}
 8002672:	bf00      	nop
 8002674:	20001804 	.word	0x20001804
 8002678:	20001704 	.word	0x20001704
 800267c:	20001810 	.word	0x20001810
 8002680:	20001820 	.word	0x20001820
 8002684:	2000180c 	.word	0x2000180c
 8002688:	20001708 	.word	0x20001708

0800268c <prvCreateIdleTasks>:

#endif /* ( ( INCLUDE_xTaskResumeFromISR == 1 ) && ( INCLUDE_vTaskSuspend == 1 ) ) */
/*-----------------------------------------------------------*/

static BaseType_t prvCreateIdleTasks( void )
{
 800268c:	b580      	push	{r7, lr}
 800268e:	b08a      	sub	sp, #40	@ 0x28
 8002690:	af02      	add	r7, sp, #8
    BaseType_t xReturn = pdPASS;
 8002692:	2301      	movs	r3, #1
 8002694:	61fb      	str	r3, [r7, #28]
    BaseType_t xCoreID;
    char cIdleName[ configMAX_TASK_NAME_LEN ];
    TaskFunction_t pxIdleTaskFunction = NULL;
 8002696:	2300      	movs	r3, #0
 8002698:	613b      	str	r3, [r7, #16]
    BaseType_t xIdleTaskNameIndex;

    for( xIdleTaskNameIndex = ( BaseType_t ) 0; xIdleTaskNameIndex < ( BaseType_t ) configMAX_TASK_NAME_LEN; xIdleTaskNameIndex++ )
 800269a:	2300      	movs	r3, #0
 800269c:	617b      	str	r3, [r7, #20]
 800269e:	e011      	b.n	80026c4 <prvCreateIdleTasks+0x38>
    {
        cIdleName[ xIdleTaskNameIndex ] = configIDLE_TASK_NAME[ xIdleTaskNameIndex ];
 80026a0:	4a1c      	ldr	r2, [pc, #112]	@ (8002714 <prvCreateIdleTasks+0x88>)
 80026a2:	697b      	ldr	r3, [r7, #20]
 80026a4:	4413      	add	r3, r2
 80026a6:	7819      	ldrb	r1, [r3, #0]
 80026a8:	463a      	mov	r2, r7
 80026aa:	697b      	ldr	r3, [r7, #20]
 80026ac:	4413      	add	r3, r2
 80026ae:	460a      	mov	r2, r1
 80026b0:	701a      	strb	r2, [r3, #0]

        /* Don't copy all configMAX_TASK_NAME_LEN if the string is shorter than
         * configMAX_TASK_NAME_LEN characters just in case the memory after the
         * string is not accessible (extremely unlikely). */
        if( cIdleName[ xIdleTaskNameIndex ] == ( char ) 0x00 )
 80026b2:	463a      	mov	r2, r7
 80026b4:	697b      	ldr	r3, [r7, #20]
 80026b6:	4413      	add	r3, r2
 80026b8:	781b      	ldrb	r3, [r3, #0]
 80026ba:	2b00      	cmp	r3, #0
 80026bc:	d006      	beq.n	80026cc <prvCreateIdleTasks+0x40>
    for( xIdleTaskNameIndex = ( BaseType_t ) 0; xIdleTaskNameIndex < ( BaseType_t ) configMAX_TASK_NAME_LEN; xIdleTaskNameIndex++ )
 80026be:	697b      	ldr	r3, [r7, #20]
 80026c0:	3301      	adds	r3, #1
 80026c2:	617b      	str	r3, [r7, #20]
 80026c4:	697b      	ldr	r3, [r7, #20]
 80026c6:	2b0f      	cmp	r3, #15
 80026c8:	ddea      	ble.n	80026a0 <prvCreateIdleTasks+0x14>
 80026ca:	e000      	b.n	80026ce <prvCreateIdleTasks+0x42>
        {
            break;
 80026cc:	bf00      	nop
            mtCOVERAGE_TEST_MARKER();
        }
    }

    /* Add each idle task at the lowest priority. */
    for( xCoreID = ( BaseType_t ) 0; xCoreID < ( BaseType_t ) configNUMBER_OF_CORES; xCoreID++ )
 80026ce:	2300      	movs	r3, #0
 80026d0:	61bb      	str	r3, [r7, #24]
 80026d2:	e015      	b.n	8002700 <prvCreateIdleTasks+0x74>
    {
        #if ( configNUMBER_OF_CORES == 1 )
        {
            pxIdleTaskFunction = prvIdleTask;
 80026d4:	4b10      	ldr	r3, [pc, #64]	@ (8002718 <prvCreateIdleTasks+0x8c>)
 80026d6:	613b      	str	r3, [r7, #16]
            }
        }
        #else /* if ( configSUPPORT_STATIC_ALLOCATION == 1 ) */
        {
            /* The Idle task is being created using dynamically allocated RAM. */
            xReturn = xTaskCreate( pxIdleTaskFunction,
 80026d8:	69bb      	ldr	r3, [r7, #24]
 80026da:	009b      	lsls	r3, r3, #2
 80026dc:	4a0f      	ldr	r2, [pc, #60]	@ (800271c <prvCreateIdleTasks+0x90>)
 80026de:	4413      	add	r3, r2
 80026e0:	4639      	mov	r1, r7
 80026e2:	9301      	str	r3, [sp, #4]
 80026e4:	2300      	movs	r3, #0
 80026e6:	9300      	str	r3, [sp, #0]
 80026e8:	2300      	movs	r3, #0
 80026ea:	2280      	movs	r2, #128	@ 0x80
 80026ec:	6938      	ldr	r0, [r7, #16]
 80026ee:	f7ff fe56 	bl	800239e <xTaskCreate>
 80026f2:	61f8      	str	r0, [r7, #28]
                                   &xIdleTaskHandles[ xCoreID ] );
        }
        #endif /* configSUPPORT_STATIC_ALLOCATION */

        /* Break the loop if any of the idle task is failed to be created. */
        if( xReturn == pdFAIL )
 80026f4:	69fb      	ldr	r3, [r7, #28]
 80026f6:	2b00      	cmp	r3, #0
 80026f8:	d006      	beq.n	8002708 <prvCreateIdleTasks+0x7c>
    for( xCoreID = ( BaseType_t ) 0; xCoreID < ( BaseType_t ) configNUMBER_OF_CORES; xCoreID++ )
 80026fa:	69bb      	ldr	r3, [r7, #24]
 80026fc:	3301      	adds	r3, #1
 80026fe:	61bb      	str	r3, [r7, #24]
 8002700:	69bb      	ldr	r3, [r7, #24]
 8002702:	2b00      	cmp	r3, #0
 8002704:	dde6      	ble.n	80026d4 <prvCreateIdleTasks+0x48>
 8002706:	e000      	b.n	800270a <prvCreateIdleTasks+0x7e>
        {
            break;
 8002708:	bf00      	nop
            }
            #endif
        }
    }

    return xReturn;
 800270a:	69fb      	ldr	r3, [r7, #28]
}
 800270c:	4618      	mov	r0, r3
 800270e:	3720      	adds	r7, #32
 8002710:	46bd      	mov	sp, r7
 8002712:	bd80      	pop	{r7, pc}
 8002714:	08004330 	.word	0x08004330
 8002718:	08002d05 	.word	0x08002d05
 800271c:	20001828 	.word	0x20001828

08002720 <vTaskStartScheduler>:

/*-----------------------------------------------------------*/

void vTaskStartScheduler( void )
{
 8002720:	b580      	push	{r7, lr}
 8002722:	b084      	sub	sp, #16
 8002724:	af00      	add	r7, sp, #0
    BaseType_t xReturn;

    traceENTER_vTaskStartScheduler();
 8002726:	20cd      	movs	r0, #205	@ 0xcd
 8002728:	f7fe fde6 	bl	80012f8 <SEGGER_SYSVIEW_RecordVoid>
         * the number of bits as confNUMBER_OF_CORES. */
        configASSERT( ( sizeof( UBaseType_t ) * taskBITS_PER_BYTE ) >= configNUMBER_OF_CORES );
    }
    #endif /* #if ( configUSE_CORE_AFFINITY == 1 ) && ( configNUMBER_OF_CORES > 1 ) */

    xReturn = prvCreateIdleTasks();
 800272c:	f7ff ffae 	bl	800268c <prvCreateIdleTasks>
 8002730:	60f8      	str	r0, [r7, #12]
            mtCOVERAGE_TEST_MARKER();
        }
    }
    #endif /* configUSE_TIMERS */

    if( xReturn == pdPASS )
 8002732:	68fb      	ldr	r3, [r7, #12]
 8002734:	2b01      	cmp	r3, #1
 8002736:	d124      	bne.n	8002782 <vTaskStartScheduler+0x62>
    __asm volatile
 8002738:	f04f 0350 	mov.w	r3, #80	@ 0x50
 800273c:	f383 8811 	msr	BASEPRI, r3
 8002740:	f3bf 8f6f 	isb	sy
 8002744:	f3bf 8f4f 	dsb	sy
 8002748:	60bb      	str	r3, [r7, #8]
}
 800274a:	bf00      	nop
             * block specific to the task that will run first. */
            configSET_TLS_BLOCK( pxCurrentTCB->xTLSBlock );
        }
        #endif

        xNextTaskUnblockTime = portMAX_DELAY;
 800274c:	4b19      	ldr	r3, [pc, #100]	@ (80027b4 <vTaskStartScheduler+0x94>)
 800274e:	f04f 32ff 	mov.w	r2, #4294967295
 8002752:	601a      	str	r2, [r3, #0]
        xSchedulerRunning = pdTRUE;
 8002754:	4b18      	ldr	r3, [pc, #96]	@ (80027b8 <vTaskStartScheduler+0x98>)
 8002756:	2201      	movs	r2, #1
 8002758:	601a      	str	r2, [r3, #0]
        xTickCount = ( TickType_t ) configINITIAL_TICK_COUNT;
 800275a:	4b18      	ldr	r3, [pc, #96]	@ (80027bc <vTaskStartScheduler+0x9c>)
 800275c:	2200      	movs	r2, #0
 800275e:	601a      	str	r2, [r3, #0]
         * is set to 0 and the following line fails to build then ensure you do not
         * have portCONFIGURE_TIMER_FOR_RUN_TIME_STATS() defined in your
         * FreeRTOSConfig.h file. */
        portCONFIGURE_TIMER_FOR_RUN_TIME_STATS();

        traceTASK_SWITCHED_IN();
 8002760:	4b17      	ldr	r3, [pc, #92]	@ (80027c0 <vTaskStartScheduler+0xa0>)
 8002762:	681a      	ldr	r2, [r3, #0]
 8002764:	4b17      	ldr	r3, [pc, #92]	@ (80027c4 <vTaskStartScheduler+0xa4>)
 8002766:	681b      	ldr	r3, [r3, #0]
 8002768:	429a      	cmp	r2, r3
 800276a:	d102      	bne.n	8002772 <vTaskStartScheduler+0x52>
 800276c:	f7ff fb18 	bl	8001da0 <SEGGER_SYSVIEW_OnIdle>
 8002770:	e004      	b.n	800277c <vTaskStartScheduler+0x5c>
 8002772:	4b14      	ldr	r3, [pc, #80]	@ (80027c4 <vTaskStartScheduler+0xa4>)
 8002774:	681b      	ldr	r3, [r3, #0]
 8002776:	4618      	mov	r0, r3
 8002778:	f7ff fb70 	bl	8001e5c <SEGGER_SYSVIEW_OnTaskStartExec>
        /* Setting up the timer tick is hardware specific and thus in the
         * portable interface. */

        /* The return value for xPortStartScheduler is not required
         * hence using a void datatype. */
        ( void ) xPortStartScheduler();
 800277c:	f000 fbfa 	bl	8002f74 <xPortStartScheduler>
 8002780:	e00f      	b.n	80027a2 <vTaskStartScheduler+0x82>
    else
    {
        /* This line will only be reached if the kernel could not be started,
         * because there was not enough FreeRTOS heap to create the idle task
         * or the timer task. */
        configASSERT( xReturn != errCOULD_NOT_ALLOCATE_REQUIRED_MEMORY );
 8002782:	68fb      	ldr	r3, [r7, #12]
 8002784:	f1b3 3fff 	cmp.w	r3, #4294967295
 8002788:	d10b      	bne.n	80027a2 <vTaskStartScheduler+0x82>
    __asm volatile
 800278a:	f04f 0350 	mov.w	r3, #80	@ 0x50
 800278e:	f383 8811 	msr	BASEPRI, r3
 8002792:	f3bf 8f6f 	isb	sy
 8002796:	f3bf 8f4f 	dsb	sy
 800279a:	607b      	str	r3, [r7, #4]
}
 800279c:	bf00      	nop
 800279e:	bf00      	nop
 80027a0:	e7fd      	b.n	800279e <vTaskStartScheduler+0x7e>
     * meaning xIdleTaskHandles are not used anywhere else. */
    ( void ) xIdleTaskHandles;

    /* OpenOCD makes use of uxTopUsedPriority for thread debugging. Prevent uxTopUsedPriority
     * from getting optimized out as it is no longer used by the kernel. */
    ( void ) uxTopUsedPriority;
 80027a2:	4b09      	ldr	r3, [pc, #36]	@ (80027c8 <vTaskStartScheduler+0xa8>)
 80027a4:	681b      	ldr	r3, [r3, #0]

    traceRETURN_vTaskStartScheduler();
 80027a6:	20cd      	movs	r0, #205	@ 0xcd
 80027a8:	f7ff fa66 	bl	8001c78 <SEGGER_SYSVIEW_RecordEndCall>
}
 80027ac:	bf00      	nop
 80027ae:	3710      	adds	r7, #16
 80027b0:	46bd      	mov	sp, r7
 80027b2:	bd80      	pop	{r7, pc}
 80027b4:	20001824 	.word	0x20001824
 80027b8:	20001810 	.word	0x20001810
 80027bc:	20001808 	.word	0x20001808
 80027c0:	20001828 	.word	0x20001828
 80027c4:	20001704 	.word	0x20001704
 80027c8:	08004370 	.word	0x08004370

080027cc <vTaskSuspendAll>:
    traceRETURN_vTaskEndScheduler();
}
/*----------------------------------------------------------*/

void vTaskSuspendAll( void )
{
 80027cc:	b580      	push	{r7, lr}
 80027ce:	af00      	add	r7, sp, #0
    traceENTER_vTaskSuspendAll();
 80027d0:	20cf      	movs	r0, #207	@ 0xcf
 80027d2:	f7fe fd91 	bl	80012f8 <SEGGER_SYSVIEW_RecordVoid>
         * do not otherwise exhibit real time behaviour. */
        portSOFTWARE_BARRIER();

        /* The scheduler is suspended if uxSchedulerSuspended is non-zero.  An increment
         * is used to allow calls to vTaskSuspendAll() to nest. */
        uxSchedulerSuspended = ( UBaseType_t ) ( uxSchedulerSuspended + 1U );
 80027d6:	4b05      	ldr	r3, [pc, #20]	@ (80027ec <vTaskSuspendAll+0x20>)
 80027d8:	681b      	ldr	r3, [r3, #0]
 80027da:	3301      	adds	r3, #1
 80027dc:	4a03      	ldr	r2, [pc, #12]	@ (80027ec <vTaskSuspendAll+0x20>)
 80027de:	6013      	str	r3, [r2, #0]
            mtCOVERAGE_TEST_MARKER();
        }
    }
    #endif /* #if ( configNUMBER_OF_CORES == 1 ) */

    traceRETURN_vTaskSuspendAll();
 80027e0:	20cf      	movs	r0, #207	@ 0xcf
 80027e2:	f7ff fa49 	bl	8001c78 <SEGGER_SYSVIEW_RecordEndCall>
}
 80027e6:	bf00      	nop
 80027e8:	bd80      	pop	{r7, pc}
 80027ea:	bf00      	nop
 80027ec:	2000182c 	.word	0x2000182c

080027f0 <xTaskResumeAll>:

#endif /* configUSE_TICKLESS_IDLE */
/*----------------------------------------------------------*/

BaseType_t xTaskResumeAll( void )
{
 80027f0:	b580      	push	{r7, lr}
 80027f2:	b088      	sub	sp, #32
 80027f4:	af00      	add	r7, sp, #0
    TCB_t * pxTCB = NULL;
 80027f6:	2300      	movs	r3, #0
 80027f8:	61fb      	str	r3, [r7, #28]
    BaseType_t xAlreadyYielded = pdFALSE;
 80027fa:	2300      	movs	r3, #0
 80027fc:	617b      	str	r3, [r7, #20]

    traceENTER_xTaskResumeAll();
 80027fe:	20d0      	movs	r0, #208	@ 0xd0
 8002800:	f7fe fd7a 	bl	80012f8 <SEGGER_SYSVIEW_RecordVoid>
        /* It is possible that an ISR caused a task to be removed from an event
         * list while the scheduler was suspended.  If this was the case then the
         * removed task will have been added to the xPendingReadyList.  Once the
         * scheduler has been resumed it is safe to move all the pending ready
         * tasks from this list into their appropriate ready list. */
        taskENTER_CRITICAL();
 8002804:	f000 fca6 	bl	8003154 <vPortEnterCritical>
        {
            BaseType_t xCoreID;
            xCoreID = ( BaseType_t ) portGET_CORE_ID();
 8002808:	2300      	movs	r3, #0
 800280a:	613b      	str	r3, [r7, #16]

            /* If uxSchedulerSuspended is zero then this function does not match a
             * previous call to vTaskSuspendAll(). */
            configASSERT( uxSchedulerSuspended != 0U );
 800280c:	4b72      	ldr	r3, [pc, #456]	@ (80029d8 <xTaskResumeAll+0x1e8>)
 800280e:	681b      	ldr	r3, [r3, #0]
 8002810:	2b00      	cmp	r3, #0
 8002812:	d10b      	bne.n	800282c <xTaskResumeAll+0x3c>
    __asm volatile
 8002814:	f04f 0350 	mov.w	r3, #80	@ 0x50
 8002818:	f383 8811 	msr	BASEPRI, r3
 800281c:	f3bf 8f6f 	isb	sy
 8002820:	f3bf 8f4f 	dsb	sy
 8002824:	603b      	str	r3, [r7, #0]
}
 8002826:	bf00      	nop
 8002828:	bf00      	nop
 800282a:	e7fd      	b.n	8002828 <xTaskResumeAll+0x38>

            uxSchedulerSuspended = ( UBaseType_t ) ( uxSchedulerSuspended - 1U );
 800282c:	4b6a      	ldr	r3, [pc, #424]	@ (80029d8 <xTaskResumeAll+0x1e8>)
 800282e:	681b      	ldr	r3, [r3, #0]
 8002830:	3b01      	subs	r3, #1
 8002832:	4a69      	ldr	r2, [pc, #420]	@ (80029d8 <xTaskResumeAll+0x1e8>)
 8002834:	6013      	str	r3, [r2, #0]
            portRELEASE_TASK_LOCK();

            if( uxSchedulerSuspended == ( UBaseType_t ) 0U )
 8002836:	4b68      	ldr	r3, [pc, #416]	@ (80029d8 <xTaskResumeAll+0x1e8>)
 8002838:	681b      	ldr	r3, [r3, #0]
 800283a:	2b00      	cmp	r3, #0
 800283c:	f040 80c0 	bne.w	80029c0 <xTaskResumeAll+0x1d0>
            {
                if( uxCurrentNumberOfTasks > ( UBaseType_t ) 0U )
 8002840:	4b66      	ldr	r3, [pc, #408]	@ (80029dc <xTaskResumeAll+0x1ec>)
 8002842:	681b      	ldr	r3, [r3, #0]
 8002844:	2b00      	cmp	r3, #0
 8002846:	f000 80bb 	beq.w	80029c0 <xTaskResumeAll+0x1d0>
                {
                    /* Move any readied tasks from the pending list into the
                     * appropriate ready list. */
                    while( listLIST_IS_EMPTY( &xPendingReadyList ) == pdFALSE )
 800284a:	e092      	b.n	8002972 <xTaskResumeAll+0x182>
                    {
                        /* MISRA Ref 11.5.3 [Void pointer assignment] */
                        /* More details at: https://github.com/FreeRTOS/FreeRTOS-Kernel/blob/main/MISRA.md#rule-115 */
                        /* coverity[misra_c_2012_rule_11_5_violation] */
                        pxTCB = listGET_OWNER_OF_HEAD_ENTRY( ( &xPendingReadyList ) );
 800284c:	4b64      	ldr	r3, [pc, #400]	@ (80029e0 <xTaskResumeAll+0x1f0>)
 800284e:	68db      	ldr	r3, [r3, #12]
 8002850:	68db      	ldr	r3, [r3, #12]
 8002852:	61fb      	str	r3, [r7, #28]
                        listREMOVE_ITEM( &( pxTCB->xEventListItem ) );
 8002854:	69fb      	ldr	r3, [r7, #28]
 8002856:	6a9b      	ldr	r3, [r3, #40]	@ 0x28
 8002858:	60fb      	str	r3, [r7, #12]
 800285a:	69fb      	ldr	r3, [r7, #28]
 800285c:	69db      	ldr	r3, [r3, #28]
 800285e:	69fa      	ldr	r2, [r7, #28]
 8002860:	6a12      	ldr	r2, [r2, #32]
 8002862:	609a      	str	r2, [r3, #8]
 8002864:	69fb      	ldr	r3, [r7, #28]
 8002866:	6a1b      	ldr	r3, [r3, #32]
 8002868:	69fa      	ldr	r2, [r7, #28]
 800286a:	69d2      	ldr	r2, [r2, #28]
 800286c:	605a      	str	r2, [r3, #4]
 800286e:	68fb      	ldr	r3, [r7, #12]
 8002870:	685a      	ldr	r2, [r3, #4]
 8002872:	69fb      	ldr	r3, [r7, #28]
 8002874:	3318      	adds	r3, #24
 8002876:	429a      	cmp	r2, r3
 8002878:	d103      	bne.n	8002882 <xTaskResumeAll+0x92>
 800287a:	69fb      	ldr	r3, [r7, #28]
 800287c:	6a1a      	ldr	r2, [r3, #32]
 800287e:	68fb      	ldr	r3, [r7, #12]
 8002880:	605a      	str	r2, [r3, #4]
 8002882:	69fb      	ldr	r3, [r7, #28]
 8002884:	2200      	movs	r2, #0
 8002886:	629a      	str	r2, [r3, #40]	@ 0x28
 8002888:	68fb      	ldr	r3, [r7, #12]
 800288a:	681b      	ldr	r3, [r3, #0]
 800288c:	1e5a      	subs	r2, r3, #1
 800288e:	68fb      	ldr	r3, [r7, #12]
 8002890:	601a      	str	r2, [r3, #0]
                        portMEMORY_BARRIER();
                        listREMOVE_ITEM( &( pxTCB->xStateListItem ) );
 8002892:	69fb      	ldr	r3, [r7, #28]
 8002894:	695b      	ldr	r3, [r3, #20]
 8002896:	60bb      	str	r3, [r7, #8]
 8002898:	69fb      	ldr	r3, [r7, #28]
 800289a:	689b      	ldr	r3, [r3, #8]
 800289c:	69fa      	ldr	r2, [r7, #28]
 800289e:	68d2      	ldr	r2, [r2, #12]
 80028a0:	609a      	str	r2, [r3, #8]
 80028a2:	69fb      	ldr	r3, [r7, #28]
 80028a4:	68db      	ldr	r3, [r3, #12]
 80028a6:	69fa      	ldr	r2, [r7, #28]
 80028a8:	6892      	ldr	r2, [r2, #8]
 80028aa:	605a      	str	r2, [r3, #4]
 80028ac:	68bb      	ldr	r3, [r7, #8]
 80028ae:	685a      	ldr	r2, [r3, #4]
 80028b0:	69fb      	ldr	r3, [r7, #28]
 80028b2:	3304      	adds	r3, #4
 80028b4:	429a      	cmp	r2, r3
 80028b6:	d103      	bne.n	80028c0 <xTaskResumeAll+0xd0>
 80028b8:	69fb      	ldr	r3, [r7, #28]
 80028ba:	68da      	ldr	r2, [r3, #12]
 80028bc:	68bb      	ldr	r3, [r7, #8]
 80028be:	605a      	str	r2, [r3, #4]
 80028c0:	69fb      	ldr	r3, [r7, #28]
 80028c2:	2200      	movs	r2, #0
 80028c4:	615a      	str	r2, [r3, #20]
 80028c6:	68bb      	ldr	r3, [r7, #8]
 80028c8:	681b      	ldr	r3, [r3, #0]
 80028ca:	1e5a      	subs	r2, r3, #1
 80028cc:	68bb      	ldr	r3, [r7, #8]
 80028ce:	601a      	str	r2, [r3, #0]
                        prvAddTaskToReadyList( pxTCB );
 80028d0:	69fb      	ldr	r3, [r7, #28]
 80028d2:	4618      	mov	r0, r3
 80028d4:	f7ff fb04 	bl	8001ee0 <SEGGER_SYSVIEW_OnTaskStartReady>
 80028d8:	69fb      	ldr	r3, [r7, #28]
 80028da:	6adb      	ldr	r3, [r3, #44]	@ 0x2c
 80028dc:	2201      	movs	r2, #1
 80028de:	409a      	lsls	r2, r3
 80028e0:	4b40      	ldr	r3, [pc, #256]	@ (80029e4 <xTaskResumeAll+0x1f4>)
 80028e2:	681b      	ldr	r3, [r3, #0]
 80028e4:	4313      	orrs	r3, r2
 80028e6:	4a3f      	ldr	r2, [pc, #252]	@ (80029e4 <xTaskResumeAll+0x1f4>)
 80028e8:	6013      	str	r3, [r2, #0]
 80028ea:	69fb      	ldr	r3, [r7, #28]
 80028ec:	6ada      	ldr	r2, [r3, #44]	@ 0x2c
 80028ee:	493e      	ldr	r1, [pc, #248]	@ (80029e8 <xTaskResumeAll+0x1f8>)
 80028f0:	4613      	mov	r3, r2
 80028f2:	009b      	lsls	r3, r3, #2
 80028f4:	4413      	add	r3, r2
 80028f6:	009b      	lsls	r3, r3, #2
 80028f8:	440b      	add	r3, r1
 80028fa:	3304      	adds	r3, #4
 80028fc:	681b      	ldr	r3, [r3, #0]
 80028fe:	607b      	str	r3, [r7, #4]
 8002900:	69fb      	ldr	r3, [r7, #28]
 8002902:	687a      	ldr	r2, [r7, #4]
 8002904:	609a      	str	r2, [r3, #8]
 8002906:	687b      	ldr	r3, [r7, #4]
 8002908:	689a      	ldr	r2, [r3, #8]
 800290a:	69fb      	ldr	r3, [r7, #28]
 800290c:	60da      	str	r2, [r3, #12]
 800290e:	687b      	ldr	r3, [r7, #4]
 8002910:	689b      	ldr	r3, [r3, #8]
 8002912:	69fa      	ldr	r2, [r7, #28]
 8002914:	3204      	adds	r2, #4
 8002916:	605a      	str	r2, [r3, #4]
 8002918:	69fb      	ldr	r3, [r7, #28]
 800291a:	1d1a      	adds	r2, r3, #4
 800291c:	687b      	ldr	r3, [r7, #4]
 800291e:	609a      	str	r2, [r3, #8]
 8002920:	69fb      	ldr	r3, [r7, #28]
 8002922:	6ada      	ldr	r2, [r3, #44]	@ 0x2c
 8002924:	4613      	mov	r3, r2
 8002926:	009b      	lsls	r3, r3, #2
 8002928:	4413      	add	r3, r2
 800292a:	009b      	lsls	r3, r3, #2
 800292c:	4a2e      	ldr	r2, [pc, #184]	@ (80029e8 <xTaskResumeAll+0x1f8>)
 800292e:	441a      	add	r2, r3
 8002930:	69fb      	ldr	r3, [r7, #28]
 8002932:	615a      	str	r2, [r3, #20]
 8002934:	69fb      	ldr	r3, [r7, #28]
 8002936:	6ada      	ldr	r2, [r3, #44]	@ 0x2c
 8002938:	492b      	ldr	r1, [pc, #172]	@ (80029e8 <xTaskResumeAll+0x1f8>)
 800293a:	4613      	mov	r3, r2
 800293c:	009b      	lsls	r3, r3, #2
 800293e:	4413      	add	r3, r2
 8002940:	009b      	lsls	r3, r3, #2
 8002942:	440b      	add	r3, r1
 8002944:	681b      	ldr	r3, [r3, #0]
 8002946:	69fa      	ldr	r2, [r7, #28]
 8002948:	6ad2      	ldr	r2, [r2, #44]	@ 0x2c
 800294a:	1c59      	adds	r1, r3, #1
 800294c:	4826      	ldr	r0, [pc, #152]	@ (80029e8 <xTaskResumeAll+0x1f8>)
 800294e:	4613      	mov	r3, r2
 8002950:	009b      	lsls	r3, r3, #2
 8002952:	4413      	add	r3, r2
 8002954:	009b      	lsls	r3, r3, #2
 8002956:	4403      	add	r3, r0
 8002958:	6019      	str	r1, [r3, #0]

                        #if ( configNUMBER_OF_CORES == 1 )
                        {
                            /* If the moved task has a priority higher than the current
                             * task then a yield must be performed. */
                            if( pxTCB->uxPriority > pxCurrentTCB->uxPriority )
 800295a:	69fb      	ldr	r3, [r7, #28]
 800295c:	6ada      	ldr	r2, [r3, #44]	@ 0x2c
 800295e:	4b23      	ldr	r3, [pc, #140]	@ (80029ec <xTaskResumeAll+0x1fc>)
 8002960:	681b      	ldr	r3, [r3, #0]
 8002962:	6adb      	ldr	r3, [r3, #44]	@ 0x2c
 8002964:	429a      	cmp	r2, r3
 8002966:	d904      	bls.n	8002972 <xTaskResumeAll+0x182>
                            {
                                xYieldPendings[ xCoreID ] = pdTRUE;
 8002968:	4a21      	ldr	r2, [pc, #132]	@ (80029f0 <xTaskResumeAll+0x200>)
 800296a:	693b      	ldr	r3, [r7, #16]
 800296c:	2101      	movs	r1, #1
 800296e:	f842 1023 	str.w	r1, [r2, r3, lsl #2]
                    while( listLIST_IS_EMPTY( &xPendingReadyList ) == pdFALSE )
 8002972:	4b1b      	ldr	r3, [pc, #108]	@ (80029e0 <xTaskResumeAll+0x1f0>)
 8002974:	681b      	ldr	r3, [r3, #0]
 8002976:	2b00      	cmp	r3, #0
 8002978:	f47f af68 	bne.w	800284c <xTaskResumeAll+0x5c>
                             * which sets xYieldPendings for the current core to pdTRUE. */
                        }
                        #endif /* #if ( configNUMBER_OF_CORES == 1 ) */
                    }

                    if( pxTCB != NULL )
 800297c:	69fb      	ldr	r3, [r7, #28]
 800297e:	2b00      	cmp	r3, #0
 8002980:	d001      	beq.n	8002986 <xTaskResumeAll+0x196>
                         * which may have prevented the next unblock time from being
                         * re-calculated, in which case re-calculate it now.  Mainly
                         * important for low power tickless implementations, where
                         * this can prevent an unnecessary exit from low power
                         * state. */
                        prvResetNextTaskUnblockTime();
 8002982:	f000 fa4f 	bl	8002e24 <prvResetNextTaskUnblockTime>
                     * It should be safe to call xTaskIncrementTick here from any core
                     * since we are in a critical section and xTaskIncrementTick itself
                     * protects itself within a critical section. Suspending the scheduler
                     * from any core causes xTaskIncrementTick to increment uxPendedCounts. */
                    {
                        TickType_t xPendedCounts = xPendedTicks; /* Non-volatile copy. */
 8002986:	4b1b      	ldr	r3, [pc, #108]	@ (80029f4 <xTaskResumeAll+0x204>)
 8002988:	681b      	ldr	r3, [r3, #0]
 800298a:	61bb      	str	r3, [r7, #24]

                        if( xPendedCounts > ( TickType_t ) 0U )
 800298c:	69bb      	ldr	r3, [r7, #24]
 800298e:	2b00      	cmp	r3, #0
 8002990:	d012      	beq.n	80029b8 <xTaskResumeAll+0x1c8>
                        {
                            do
                            {
                                if( xTaskIncrementTick() != pdFALSE )
 8002992:	f000 f849 	bl	8002a28 <xTaskIncrementTick>
 8002996:	4603      	mov	r3, r0
 8002998:	2b00      	cmp	r3, #0
 800299a:	d004      	beq.n	80029a6 <xTaskResumeAll+0x1b6>
                                {
                                    /* Other cores are interrupted from
                                     * within xTaskIncrementTick(). */
                                    xYieldPendings[ xCoreID ] = pdTRUE;
 800299c:	4a14      	ldr	r2, [pc, #80]	@ (80029f0 <xTaskResumeAll+0x200>)
 800299e:	693b      	ldr	r3, [r7, #16]
 80029a0:	2101      	movs	r1, #1
 80029a2:	f842 1023 	str.w	r1, [r2, r3, lsl #2]
                                else
                                {
                                    mtCOVERAGE_TEST_MARKER();
                                }

                                --xPendedCounts;
 80029a6:	69bb      	ldr	r3, [r7, #24]
 80029a8:	3b01      	subs	r3, #1
 80029aa:	61bb      	str	r3, [r7, #24]
                            } while( xPendedCounts > ( TickType_t ) 0U );
 80029ac:	69bb      	ldr	r3, [r7, #24]
 80029ae:	2b00      	cmp	r3, #0
 80029b0:	d1ef      	bne.n	8002992 <xTaskResumeAll+0x1a2>

                            xPendedTicks = 0;
 80029b2:	4b10      	ldr	r3, [pc, #64]	@ (80029f4 <xTaskResumeAll+0x204>)
 80029b4:	2200      	movs	r2, #0
 80029b6:	601a      	str	r2, [r3, #0]
                        {
                            mtCOVERAGE_TEST_MARKER();
                        }
                    }

                    if( xYieldPendings[ xCoreID ] != pdFALSE )
 80029b8:	4a0d      	ldr	r2, [pc, #52]	@ (80029f0 <xTaskResumeAll+0x200>)
 80029ba:	693b      	ldr	r3, [r7, #16]
 80029bc:	f852 3023 	ldr.w	r3, [r2, r3, lsl #2]
            else
            {
                mtCOVERAGE_TEST_MARKER();
            }
        }
        taskEXIT_CRITICAL();
 80029c0:	f000 fbfa 	bl	80031b8 <vPortExitCritical>
    }

    traceRETURN_xTaskResumeAll( xAlreadyYielded );
 80029c4:	697b      	ldr	r3, [r7, #20]
 80029c6:	4619      	mov	r1, r3
 80029c8:	20d0      	movs	r0, #208	@ 0xd0
 80029ca:	f7ff f991 	bl	8001cf0 <SEGGER_SYSVIEW_RecordEndCallU32>

    return xAlreadyYielded;
 80029ce:	697b      	ldr	r3, [r7, #20]
}
 80029d0:	4618      	mov	r0, r3
 80029d2:	3720      	adds	r7, #32
 80029d4:	46bd      	mov	sp, r7
 80029d6:	bd80      	pop	{r7, pc}
 80029d8:	2000182c 	.word	0x2000182c
 80029dc:	20001804 	.word	0x20001804
 80029e0:	200017c4 	.word	0x200017c4
 80029e4:	2000180c 	.word	0x2000180c
 80029e8:	20001708 	.word	0x20001708
 80029ec:	20001704 	.word	0x20001704
 80029f0:	20001818 	.word	0x20001818
 80029f4:	20001814 	.word	0x20001814

080029f8 <xTaskGetTickCountFromISR>:
    return xTicks;
}
/*-----------------------------------------------------------*/

TickType_t xTaskGetTickCountFromISR( void )
{
 80029f8:	b580      	push	{r7, lr}
 80029fa:	b082      	sub	sp, #8
 80029fc:	af00      	add	r7, sp, #0
    TickType_t xReturn;
    UBaseType_t uxSavedInterruptStatus;

    traceENTER_xTaskGetTickCountFromISR();
 80029fe:	20d2      	movs	r0, #210	@ 0xd2
 8002a00:	f7fe fc7a 	bl	80012f8 <SEGGER_SYSVIEW_RecordVoid>
     * that have been assigned a priority at or (logically) below the maximum
     * system call  interrupt priority.  FreeRTOS maintains a separate interrupt
     * safe API to ensure interrupt entry is as fast and as simple as possible.
     * More information (albeit Cortex-M specific) is provided on the following
     * link: https://www.FreeRTOS.org/RTOS-Cortex-M3-M4.html */
    portASSERT_IF_INTERRUPT_PRIORITY_INVALID();
 8002a04:	f000 fc92 	bl	800332c <vPortValidateInterruptPriority>

    uxSavedInterruptStatus = portTICK_TYPE_SET_INTERRUPT_MASK_FROM_ISR();
 8002a08:	2300      	movs	r3, #0
 8002a0a:	607b      	str	r3, [r7, #4]
    {
        xReturn = xTickCount;
 8002a0c:	4b05      	ldr	r3, [pc, #20]	@ (8002a24 <xTaskGetTickCountFromISR+0x2c>)
 8002a0e:	681b      	ldr	r3, [r3, #0]
 8002a10:	603b      	str	r3, [r7, #0]
    }
    portTICK_TYPE_CLEAR_INTERRUPT_MASK_FROM_ISR( uxSavedInterruptStatus );

    traceRETURN_xTaskGetTickCountFromISR( xReturn );
 8002a12:	6839      	ldr	r1, [r7, #0]
 8002a14:	20d2      	movs	r0, #210	@ 0xd2
 8002a16:	f7ff f96b 	bl	8001cf0 <SEGGER_SYSVIEW_RecordEndCallU32>

    return xReturn;
 8002a1a:	683b      	ldr	r3, [r7, #0]
}
 8002a1c:	4618      	mov	r0, r3
 8002a1e:	3708      	adds	r7, #8
 8002a20:	46bd      	mov	sp, r7
 8002a22:	bd80      	pop	{r7, pc}
 8002a24:	20001808 	.word	0x20001808

08002a28 <xTaskIncrementTick>:

#endif /* INCLUDE_xTaskAbortDelay */
/*----------------------------------------------------------*/

BaseType_t xTaskIncrementTick( void )
{
 8002a28:	b580      	push	{r7, lr}
 8002a2a:	b08a      	sub	sp, #40	@ 0x28
 8002a2c:	af00      	add	r7, sp, #0
    TCB_t * pxTCB;
    TickType_t xItemValue;
    BaseType_t xSwitchRequired = pdFALSE;
 8002a2e:	2300      	movs	r3, #0
 8002a30:	627b      	str	r3, [r7, #36]	@ 0x24

    #if ( configUSE_PREEMPTION == 1 ) && ( configNUMBER_OF_CORES > 1 )
    BaseType_t xYieldRequiredForCore[ configNUMBER_OF_CORES ] = { pdFALSE };
    #endif /* #if ( configUSE_PREEMPTION == 1 ) && ( configNUMBER_OF_CORES > 1 ) */

    traceENTER_xTaskIncrementTick();
 8002a32:	20db      	movs	r0, #219	@ 0xdb
 8002a34:	f7fe fc60 	bl	80012f8 <SEGGER_SYSVIEW_RecordVoid>

    /* Tick increment should occur on every kernel timer event. Core 0 has the
     * responsibility to increment the tick, or increment the pended ticks if the
     * scheduler is suspended.  If pended ticks is greater than zero, the core that
     * calls xTaskResumeAll has the responsibility to increment the tick. */
    if( uxSchedulerSuspended == ( UBaseType_t ) 0U )
 8002a38:	4b73      	ldr	r3, [pc, #460]	@ (8002c08 <xTaskIncrementTick+0x1e0>)
 8002a3a:	681b      	ldr	r3, [r3, #0]
 8002a3c:	2b00      	cmp	r3, #0
 8002a3e:	f040 80d4 	bne.w	8002bea <xTaskIncrementTick+0x1c2>
    {
        /* Minor optimisation.  The tick count cannot change in this
         * block. */
        const TickType_t xConstTickCount = xTickCount + ( TickType_t ) 1;
 8002a42:	4b72      	ldr	r3, [pc, #456]	@ (8002c0c <xTaskIncrementTick+0x1e4>)
 8002a44:	681b      	ldr	r3, [r3, #0]
 8002a46:	3301      	adds	r3, #1
 8002a48:	623b      	str	r3, [r7, #32]

        /* Increment the RTOS tick, switching the delayed and overflowed
         * delayed lists if it wraps to 0. */
        xTickCount = xConstTickCount;
 8002a4a:	4a70      	ldr	r2, [pc, #448]	@ (8002c0c <xTaskIncrementTick+0x1e4>)
 8002a4c:	6a3b      	ldr	r3, [r7, #32]
 8002a4e:	6013      	str	r3, [r2, #0]

        if( xConstTickCount == ( TickType_t ) 0U )
 8002a50:	6a3b      	ldr	r3, [r7, #32]
 8002a52:	2b00      	cmp	r3, #0
 8002a54:	d121      	bne.n	8002a9a <xTaskIncrementTick+0x72>
        {
            taskSWITCH_DELAYED_LISTS();
 8002a56:	4b6e      	ldr	r3, [pc, #440]	@ (8002c10 <xTaskIncrementTick+0x1e8>)
 8002a58:	681b      	ldr	r3, [r3, #0]
 8002a5a:	681b      	ldr	r3, [r3, #0]
 8002a5c:	2b00      	cmp	r3, #0
 8002a5e:	d00b      	beq.n	8002a78 <xTaskIncrementTick+0x50>
    __asm volatile
 8002a60:	f04f 0350 	mov.w	r3, #80	@ 0x50
 8002a64:	f383 8811 	msr	BASEPRI, r3
 8002a68:	f3bf 8f6f 	isb	sy
 8002a6c:	f3bf 8f4f 	dsb	sy
 8002a70:	607b      	str	r3, [r7, #4]
}
 8002a72:	bf00      	nop
 8002a74:	bf00      	nop
 8002a76:	e7fd      	b.n	8002a74 <xTaskIncrementTick+0x4c>
 8002a78:	4b65      	ldr	r3, [pc, #404]	@ (8002c10 <xTaskIncrementTick+0x1e8>)
 8002a7a:	681b      	ldr	r3, [r3, #0]
 8002a7c:	61fb      	str	r3, [r7, #28]
 8002a7e:	4b65      	ldr	r3, [pc, #404]	@ (8002c14 <xTaskIncrementTick+0x1ec>)
 8002a80:	681b      	ldr	r3, [r3, #0]
 8002a82:	4a63      	ldr	r2, [pc, #396]	@ (8002c10 <xTaskIncrementTick+0x1e8>)
 8002a84:	6013      	str	r3, [r2, #0]
 8002a86:	4a63      	ldr	r2, [pc, #396]	@ (8002c14 <xTaskIncrementTick+0x1ec>)
 8002a88:	69fb      	ldr	r3, [r7, #28]
 8002a8a:	6013      	str	r3, [r2, #0]
 8002a8c:	4b62      	ldr	r3, [pc, #392]	@ (8002c18 <xTaskIncrementTick+0x1f0>)
 8002a8e:	681b      	ldr	r3, [r3, #0]
 8002a90:	3301      	adds	r3, #1
 8002a92:	4a61      	ldr	r2, [pc, #388]	@ (8002c18 <xTaskIncrementTick+0x1f0>)
 8002a94:	6013      	str	r3, [r2, #0]
 8002a96:	f000 f9c5 	bl	8002e24 <prvResetNextTaskUnblockTime>

        /* See if this tick has made a timeout expire.  Tasks are stored in
         * the  queue in the order of their wake time - meaning once one task
         * has been found whose block time has not expired there is no need to
         * look any further down the list. */
        if( xConstTickCount >= xNextTaskUnblockTime )
 8002a9a:	4b60      	ldr	r3, [pc, #384]	@ (8002c1c <xTaskIncrementTick+0x1f4>)
 8002a9c:	681b      	ldr	r3, [r3, #0]
 8002a9e:	6a3a      	ldr	r2, [r7, #32]
 8002aa0:	429a      	cmp	r2, r3
 8002aa2:	f0c0 80a7 	bcc.w	8002bf4 <xTaskIncrementTick+0x1cc>
        {
            for( ; ; )
            {
                if( listLIST_IS_EMPTY( pxDelayedTaskList ) != pdFALSE )
 8002aa6:	4b5a      	ldr	r3, [pc, #360]	@ (8002c10 <xTaskIncrementTick+0x1e8>)
 8002aa8:	681b      	ldr	r3, [r3, #0]
 8002aaa:	681b      	ldr	r3, [r3, #0]
 8002aac:	2b00      	cmp	r3, #0
 8002aae:	d104      	bne.n	8002aba <xTaskIncrementTick+0x92>
                    /* The delayed list is empty.  Set xNextTaskUnblockTime
                     * to the maximum possible value so it is extremely
                     * unlikely that the
                     * if( xTickCount >= xNextTaskUnblockTime ) test will pass
                     * next time through. */
                    xNextTaskUnblockTime = portMAX_DELAY;
 8002ab0:	4b5a      	ldr	r3, [pc, #360]	@ (8002c1c <xTaskIncrementTick+0x1f4>)
 8002ab2:	f04f 32ff 	mov.w	r2, #4294967295
 8002ab6:	601a      	str	r2, [r3, #0]
                    break;
 8002ab8:	e09c      	b.n	8002bf4 <xTaskIncrementTick+0x1cc>
                     * at which the task at the head of the delayed list must
                     * be removed from the Blocked state. */
                    /* MISRA Ref 11.5.3 [Void pointer assignment] */
                    /* More details at: https://github.com/FreeRTOS/FreeRTOS-Kernel/blob/main/MISRA.md#rule-115 */
                    /* coverity[misra_c_2012_rule_11_5_violation] */
                    pxTCB = listGET_OWNER_OF_HEAD_ENTRY( pxDelayedTaskList );
 8002aba:	4b55      	ldr	r3, [pc, #340]	@ (8002c10 <xTaskIncrementTick+0x1e8>)
 8002abc:	681b      	ldr	r3, [r3, #0]
 8002abe:	68db      	ldr	r3, [r3, #12]
 8002ac0:	68db      	ldr	r3, [r3, #12]
 8002ac2:	61bb      	str	r3, [r7, #24]
                    xItemValue = listGET_LIST_ITEM_VALUE( &( pxTCB->xStateListItem ) );
 8002ac4:	69bb      	ldr	r3, [r7, #24]
 8002ac6:	685b      	ldr	r3, [r3, #4]
 8002ac8:	617b      	str	r3, [r7, #20]

                    if( xConstTickCount < xItemValue )
 8002aca:	6a3a      	ldr	r2, [r7, #32]
 8002acc:	697b      	ldr	r3, [r7, #20]
 8002ace:	429a      	cmp	r2, r3
 8002ad0:	d203      	bcs.n	8002ada <xTaskIncrementTick+0xb2>
                        /* It is not time to unblock this item yet, but the
                         * item value is the time at which the task at the head
                         * of the blocked list must be removed from the Blocked
                         * state -  so record the item value in
                         * xNextTaskUnblockTime. */
                        xNextTaskUnblockTime = xItemValue;
 8002ad2:	4a52      	ldr	r2, [pc, #328]	@ (8002c1c <xTaskIncrementTick+0x1f4>)
 8002ad4:	697b      	ldr	r3, [r7, #20]
 8002ad6:	6013      	str	r3, [r2, #0]
                        break;
 8002ad8:	e08c      	b.n	8002bf4 <xTaskIncrementTick+0x1cc>
                    {
                        mtCOVERAGE_TEST_MARKER();
                    }

                    /* It is time to remove the item from the Blocked state. */
                    listREMOVE_ITEM( &( pxTCB->xStateListItem ) );
 8002ada:	69bb      	ldr	r3, [r7, #24]
 8002adc:	695b      	ldr	r3, [r3, #20]
 8002ade:	613b      	str	r3, [r7, #16]
 8002ae0:	69bb      	ldr	r3, [r7, #24]
 8002ae2:	689b      	ldr	r3, [r3, #8]
 8002ae4:	69ba      	ldr	r2, [r7, #24]
 8002ae6:	68d2      	ldr	r2, [r2, #12]
 8002ae8:	609a      	str	r2, [r3, #8]
 8002aea:	69bb      	ldr	r3, [r7, #24]
 8002aec:	68db      	ldr	r3, [r3, #12]
 8002aee:	69ba      	ldr	r2, [r7, #24]
 8002af0:	6892      	ldr	r2, [r2, #8]
 8002af2:	605a      	str	r2, [r3, #4]
 8002af4:	693b      	ldr	r3, [r7, #16]
 8002af6:	685a      	ldr	r2, [r3, #4]
 8002af8:	69bb      	ldr	r3, [r7, #24]
 8002afa:	3304      	adds	r3, #4
 8002afc:	429a      	cmp	r2, r3
 8002afe:	d103      	bne.n	8002b08 <xTaskIncrementTick+0xe0>
 8002b00:	69bb      	ldr	r3, [r7, #24]
 8002b02:	68da      	ldr	r2, [r3, #12]
 8002b04:	693b      	ldr	r3, [r7, #16]
 8002b06:	605a      	str	r2, [r3, #4]
 8002b08:	69bb      	ldr	r3, [r7, #24]
 8002b0a:	2200      	movs	r2, #0
 8002b0c:	615a      	str	r2, [r3, #20]
 8002b0e:	693b      	ldr	r3, [r7, #16]
 8002b10:	681b      	ldr	r3, [r3, #0]
 8002b12:	1e5a      	subs	r2, r3, #1
 8002b14:	693b      	ldr	r3, [r7, #16]
 8002b16:	601a      	str	r2, [r3, #0]

                    /* Is the task waiting on an event also?  If so remove
                     * it from the event list. */
                    if( listLIST_ITEM_CONTAINER( &( pxTCB->xEventListItem ) ) != NULL )
 8002b18:	69bb      	ldr	r3, [r7, #24]
 8002b1a:	6a9b      	ldr	r3, [r3, #40]	@ 0x28
 8002b1c:	2b00      	cmp	r3, #0
 8002b1e:	d01e      	beq.n	8002b5e <xTaskIncrementTick+0x136>
                    {
                        listREMOVE_ITEM( &( pxTCB->xEventListItem ) );
 8002b20:	69bb      	ldr	r3, [r7, #24]
 8002b22:	6a9b      	ldr	r3, [r3, #40]	@ 0x28
 8002b24:	60fb      	str	r3, [r7, #12]
 8002b26:	69bb      	ldr	r3, [r7, #24]
 8002b28:	69db      	ldr	r3, [r3, #28]
 8002b2a:	69ba      	ldr	r2, [r7, #24]
 8002b2c:	6a12      	ldr	r2, [r2, #32]
 8002b2e:	609a      	str	r2, [r3, #8]
 8002b30:	69bb      	ldr	r3, [r7, #24]
 8002b32:	6a1b      	ldr	r3, [r3, #32]
 8002b34:	69ba      	ldr	r2, [r7, #24]
 8002b36:	69d2      	ldr	r2, [r2, #28]
 8002b38:	605a      	str	r2, [r3, #4]
 8002b3a:	68fb      	ldr	r3, [r7, #12]
 8002b3c:	685a      	ldr	r2, [r3, #4]
 8002b3e:	69bb      	ldr	r3, [r7, #24]
 8002b40:	3318      	adds	r3, #24
 8002b42:	429a      	cmp	r2, r3
 8002b44:	d103      	bne.n	8002b4e <xTaskIncrementTick+0x126>
 8002b46:	69bb      	ldr	r3, [r7, #24]
 8002b48:	6a1a      	ldr	r2, [r3, #32]
 8002b4a:	68fb      	ldr	r3, [r7, #12]
 8002b4c:	605a      	str	r2, [r3, #4]
 8002b4e:	69bb      	ldr	r3, [r7, #24]
 8002b50:	2200      	movs	r2, #0
 8002b52:	629a      	str	r2, [r3, #40]	@ 0x28
 8002b54:	68fb      	ldr	r3, [r7, #12]
 8002b56:	681b      	ldr	r3, [r3, #0]
 8002b58:	1e5a      	subs	r2, r3, #1
 8002b5a:	68fb      	ldr	r3, [r7, #12]
 8002b5c:	601a      	str	r2, [r3, #0]
                        mtCOVERAGE_TEST_MARKER();
                    }

                    /* Place the unblocked task into the appropriate ready
                     * list. */
                    prvAddTaskToReadyList( pxTCB );
 8002b5e:	69bb      	ldr	r3, [r7, #24]
 8002b60:	4618      	mov	r0, r3
 8002b62:	f7ff f9bd 	bl	8001ee0 <SEGGER_SYSVIEW_OnTaskStartReady>
 8002b66:	69bb      	ldr	r3, [r7, #24]
 8002b68:	6adb      	ldr	r3, [r3, #44]	@ 0x2c
 8002b6a:	2201      	movs	r2, #1
 8002b6c:	409a      	lsls	r2, r3
 8002b6e:	4b2c      	ldr	r3, [pc, #176]	@ (8002c20 <xTaskIncrementTick+0x1f8>)
 8002b70:	681b      	ldr	r3, [r3, #0]
 8002b72:	4313      	orrs	r3, r2
 8002b74:	4a2a      	ldr	r2, [pc, #168]	@ (8002c20 <xTaskIncrementTick+0x1f8>)
 8002b76:	6013      	str	r3, [r2, #0]
 8002b78:	69bb      	ldr	r3, [r7, #24]
 8002b7a:	6ada      	ldr	r2, [r3, #44]	@ 0x2c
 8002b7c:	4929      	ldr	r1, [pc, #164]	@ (8002c24 <xTaskIncrementTick+0x1fc>)
 8002b7e:	4613      	mov	r3, r2
 8002b80:	009b      	lsls	r3, r3, #2
 8002b82:	4413      	add	r3, r2
 8002b84:	009b      	lsls	r3, r3, #2
 8002b86:	440b      	add	r3, r1
 8002b88:	3304      	adds	r3, #4
 8002b8a:	681b      	ldr	r3, [r3, #0]
 8002b8c:	60bb      	str	r3, [r7, #8]
 8002b8e:	69bb      	ldr	r3, [r7, #24]
 8002b90:	68ba      	ldr	r2, [r7, #8]
 8002b92:	609a      	str	r2, [r3, #8]
 8002b94:	68bb      	ldr	r3, [r7, #8]
 8002b96:	689a      	ldr	r2, [r3, #8]
 8002b98:	69bb      	ldr	r3, [r7, #24]
 8002b9a:	60da      	str	r2, [r3, #12]
 8002b9c:	68bb      	ldr	r3, [r7, #8]
 8002b9e:	689b      	ldr	r3, [r3, #8]
 8002ba0:	69ba      	ldr	r2, [r7, #24]
 8002ba2:	3204      	adds	r2, #4
 8002ba4:	605a      	str	r2, [r3, #4]
 8002ba6:	69bb      	ldr	r3, [r7, #24]
 8002ba8:	1d1a      	adds	r2, r3, #4
 8002baa:	68bb      	ldr	r3, [r7, #8]
 8002bac:	609a      	str	r2, [r3, #8]
 8002bae:	69bb      	ldr	r3, [r7, #24]
 8002bb0:	6ada      	ldr	r2, [r3, #44]	@ 0x2c
 8002bb2:	4613      	mov	r3, r2
 8002bb4:	009b      	lsls	r3, r3, #2
 8002bb6:	4413      	add	r3, r2
 8002bb8:	009b      	lsls	r3, r3, #2
 8002bba:	4a1a      	ldr	r2, [pc, #104]	@ (8002c24 <xTaskIncrementTick+0x1fc>)
 8002bbc:	441a      	add	r2, r3
 8002bbe:	69bb      	ldr	r3, [r7, #24]
 8002bc0:	615a      	str	r2, [r3, #20]
 8002bc2:	69bb      	ldr	r3, [r7, #24]
 8002bc4:	6ada      	ldr	r2, [r3, #44]	@ 0x2c
 8002bc6:	4917      	ldr	r1, [pc, #92]	@ (8002c24 <xTaskIncrementTick+0x1fc>)
 8002bc8:	4613      	mov	r3, r2
 8002bca:	009b      	lsls	r3, r3, #2
 8002bcc:	4413      	add	r3, r2
 8002bce:	009b      	lsls	r3, r3, #2
 8002bd0:	440b      	add	r3, r1
 8002bd2:	681b      	ldr	r3, [r3, #0]
 8002bd4:	69ba      	ldr	r2, [r7, #24]
 8002bd6:	6ad2      	ldr	r2, [r2, #44]	@ 0x2c
 8002bd8:	1c59      	adds	r1, r3, #1
 8002bda:	4812      	ldr	r0, [pc, #72]	@ (8002c24 <xTaskIncrementTick+0x1fc>)
 8002bdc:	4613      	mov	r3, r2
 8002bde:	009b      	lsls	r3, r3, #2
 8002be0:	4413      	add	r3, r2
 8002be2:	009b      	lsls	r3, r3, #2
 8002be4:	4403      	add	r3, r0
 8002be6:	6019      	str	r1, [r3, #0]
                if( listLIST_IS_EMPTY( pxDelayedTaskList ) != pdFALSE )
 8002be8:	e75d      	b.n	8002aa6 <xTaskIncrementTick+0x7e>
        }
        #endif /* #if ( configUSE_PREEMPTION == 1 ) */
    }
    else
    {
        xPendedTicks += 1U;
 8002bea:	4b0f      	ldr	r3, [pc, #60]	@ (8002c28 <xTaskIncrementTick+0x200>)
 8002bec:	681b      	ldr	r3, [r3, #0]
 8002bee:	3301      	adds	r3, #1
 8002bf0:	4a0d      	ldr	r2, [pc, #52]	@ (8002c28 <xTaskIncrementTick+0x200>)
 8002bf2:	6013      	str	r3, [r2, #0]
            vApplicationTickHook();
        }
        #endif
    }

    traceRETURN_xTaskIncrementTick( xSwitchRequired );
 8002bf4:	6a7b      	ldr	r3, [r7, #36]	@ 0x24
 8002bf6:	4619      	mov	r1, r3
 8002bf8:	20db      	movs	r0, #219	@ 0xdb
 8002bfa:	f7ff f879 	bl	8001cf0 <SEGGER_SYSVIEW_RecordEndCallU32>

    return xSwitchRequired;
 8002bfe:	6a7b      	ldr	r3, [r7, #36]	@ 0x24
}
 8002c00:	4618      	mov	r0, r3
 8002c02:	3728      	adds	r7, #40	@ 0x28
 8002c04:	46bd      	mov	sp, r7
 8002c06:	bd80      	pop	{r7, pc}
 8002c08:	2000182c 	.word	0x2000182c
 8002c0c:	20001808 	.word	0x20001808
 8002c10:	200017bc 	.word	0x200017bc
 8002c14:	200017c0 	.word	0x200017c0
 8002c18:	2000181c 	.word	0x2000181c
 8002c1c:	20001824 	.word	0x20001824
 8002c20:	2000180c 	.word	0x2000180c
 8002c24:	20001708 	.word	0x20001708
 8002c28:	20001814 	.word	0x20001814

08002c2c <vTaskSwitchContext>:
#endif /* configUSE_APPLICATION_TASK_TAG */
/*-----------------------------------------------------------*/

#if ( configNUMBER_OF_CORES == 1 )
    void vTaskSwitchContext( void )
    {
 8002c2c:	b580      	push	{r7, lr}
 8002c2e:	b086      	sub	sp, #24
 8002c30:	af00      	add	r7, sp, #0
        traceENTER_vTaskSwitchContext();

        if( uxSchedulerSuspended != ( UBaseType_t ) 0U )
 8002c32:	4b2e      	ldr	r3, [pc, #184]	@ (8002cec <vTaskSwitchContext+0xc0>)
 8002c34:	681b      	ldr	r3, [r3, #0]
 8002c36:	2b00      	cmp	r3, #0
 8002c38:	d003      	beq.n	8002c42 <vTaskSwitchContext+0x16>
        {
            /* The scheduler is currently suspended - do not allow a context
             * switch. */
            xYieldPendings[ 0 ] = pdTRUE;
 8002c3a:	4b2d      	ldr	r3, [pc, #180]	@ (8002cf0 <vTaskSwitchContext+0xc4>)
 8002c3c:	2201      	movs	r2, #1
 8002c3e:	601a      	str	r2, [r3, #0]
            }
            #endif
        }

        traceRETURN_vTaskSwitchContext();
    }
 8002c40:	e04f      	b.n	8002ce2 <vTaskSwitchContext+0xb6>
            xYieldPendings[ 0 ] = pdFALSE;
 8002c42:	4b2b      	ldr	r3, [pc, #172]	@ (8002cf0 <vTaskSwitchContext+0xc4>)
 8002c44:	2200      	movs	r2, #0
 8002c46:	601a      	str	r2, [r3, #0]
            taskSELECT_HIGHEST_PRIORITY_TASK();
 8002c48:	4b2a      	ldr	r3, [pc, #168]	@ (8002cf4 <vTaskSwitchContext+0xc8>)
 8002c4a:	681b      	ldr	r3, [r3, #0]
 8002c4c:	60fb      	str	r3, [r7, #12]
        __asm volatile ( "clz %0, %1" : "=r" ( ucReturn ) : "r" ( ulBitmap ) : "memory" );
 8002c4e:	68fb      	ldr	r3, [r7, #12]
 8002c50:	fab3 f383 	clz	r3, r3
 8002c54:	72fb      	strb	r3, [r7, #11]
        return ucReturn;
 8002c56:	7afb      	ldrb	r3, [r7, #11]
 8002c58:	f1c3 031f 	rsb	r3, r3, #31
 8002c5c:	617b      	str	r3, [r7, #20]
 8002c5e:	4926      	ldr	r1, [pc, #152]	@ (8002cf8 <vTaskSwitchContext+0xcc>)
 8002c60:	697a      	ldr	r2, [r7, #20]
 8002c62:	4613      	mov	r3, r2
 8002c64:	009b      	lsls	r3, r3, #2
 8002c66:	4413      	add	r3, r2
 8002c68:	009b      	lsls	r3, r3, #2
 8002c6a:	440b      	add	r3, r1
 8002c6c:	681b      	ldr	r3, [r3, #0]
 8002c6e:	2b00      	cmp	r3, #0
 8002c70:	d10b      	bne.n	8002c8a <vTaskSwitchContext+0x5e>
    __asm volatile
 8002c72:	f04f 0350 	mov.w	r3, #80	@ 0x50
 8002c76:	f383 8811 	msr	BASEPRI, r3
 8002c7a:	f3bf 8f6f 	isb	sy
 8002c7e:	f3bf 8f4f 	dsb	sy
 8002c82:	607b      	str	r3, [r7, #4]
}
 8002c84:	bf00      	nop
 8002c86:	bf00      	nop
 8002c88:	e7fd      	b.n	8002c86 <vTaskSwitchContext+0x5a>
 8002c8a:	697a      	ldr	r2, [r7, #20]
 8002c8c:	4613      	mov	r3, r2
 8002c8e:	009b      	lsls	r3, r3, #2
 8002c90:	4413      	add	r3, r2
 8002c92:	009b      	lsls	r3, r3, #2
 8002c94:	4a18      	ldr	r2, [pc, #96]	@ (8002cf8 <vTaskSwitchContext+0xcc>)
 8002c96:	4413      	add	r3, r2
 8002c98:	613b      	str	r3, [r7, #16]
 8002c9a:	693b      	ldr	r3, [r7, #16]
 8002c9c:	685b      	ldr	r3, [r3, #4]
 8002c9e:	685a      	ldr	r2, [r3, #4]
 8002ca0:	693b      	ldr	r3, [r7, #16]
 8002ca2:	605a      	str	r2, [r3, #4]
 8002ca4:	693b      	ldr	r3, [r7, #16]
 8002ca6:	685a      	ldr	r2, [r3, #4]
 8002ca8:	693b      	ldr	r3, [r7, #16]
 8002caa:	3308      	adds	r3, #8
 8002cac:	429a      	cmp	r2, r3
 8002cae:	d103      	bne.n	8002cb8 <vTaskSwitchContext+0x8c>
 8002cb0:	693b      	ldr	r3, [r7, #16]
 8002cb2:	68da      	ldr	r2, [r3, #12]
 8002cb4:	693b      	ldr	r3, [r7, #16]
 8002cb6:	605a      	str	r2, [r3, #4]
 8002cb8:	693b      	ldr	r3, [r7, #16]
 8002cba:	685b      	ldr	r3, [r3, #4]
 8002cbc:	68db      	ldr	r3, [r3, #12]
 8002cbe:	4a0f      	ldr	r2, [pc, #60]	@ (8002cfc <vTaskSwitchContext+0xd0>)
 8002cc0:	6013      	str	r3, [r2, #0]
            traceTASK_SWITCHED_IN();
 8002cc2:	4b0f      	ldr	r3, [pc, #60]	@ (8002d00 <vTaskSwitchContext+0xd4>)
 8002cc4:	681a      	ldr	r2, [r3, #0]
 8002cc6:	4b0d      	ldr	r3, [pc, #52]	@ (8002cfc <vTaskSwitchContext+0xd0>)
 8002cc8:	681b      	ldr	r3, [r3, #0]
 8002cca:	429a      	cmp	r2, r3
 8002ccc:	d102      	bne.n	8002cd4 <vTaskSwitchContext+0xa8>
 8002cce:	f7ff f867 	bl	8001da0 <SEGGER_SYSVIEW_OnIdle>
 8002cd2:	e004      	b.n	8002cde <vTaskSwitchContext+0xb2>
 8002cd4:	4b09      	ldr	r3, [pc, #36]	@ (8002cfc <vTaskSwitchContext+0xd0>)
 8002cd6:	681b      	ldr	r3, [r3, #0]
 8002cd8:	4618      	mov	r0, r3
 8002cda:	f7ff f8bf 	bl	8001e5c <SEGGER_SYSVIEW_OnTaskStartExec>
            portTASK_SWITCH_HOOK( pxCurrentTCB );
 8002cde:	4b07      	ldr	r3, [pc, #28]	@ (8002cfc <vTaskSwitchContext+0xd0>)
 8002ce0:	681b      	ldr	r3, [r3, #0]
    }
 8002ce2:	bf00      	nop
 8002ce4:	3718      	adds	r7, #24
 8002ce6:	46bd      	mov	sp, r7
 8002ce8:	bd80      	pop	{r7, pc}
 8002cea:	bf00      	nop
 8002cec:	2000182c 	.word	0x2000182c
 8002cf0:	20001818 	.word	0x20001818
 8002cf4:	2000180c 	.word	0x2000180c
 8002cf8:	20001708 	.word	0x20001708
 8002cfc:	20001704 	.word	0x20001704
 8002d00:	20001828 	.word	0x20001828

08002d04 <prvIdleTask>:
 * void prvIdleTask( void *pvParameters );
 *
 */

static portTASK_FUNCTION( prvIdleTask, pvParameters )
{
 8002d04:	b580      	push	{r7, lr}
 8002d06:	b082      	sub	sp, #8
 8002d08:	af00      	add	r7, sp, #0
 8002d0a:	6078      	str	r0, [r7, #4]

    for( ; configCONTROL_INFINITE_LOOP(); )
    {
        /* See if any tasks have deleted themselves - if so then the idle task
         * is responsible for freeing the deleted task's TCB and stack. */
        prvCheckTasksWaitingTermination();
 8002d0c:	f000 f84c 	bl	8002da8 <prvCheckTasksWaitingTermination>
        {
            /* If we are not using preemption we keep forcing a task switch to
             * see if any other task has become available.  If we are using
             * preemption we don't need to do this as any task becoming available
             * will automatically get the processor anyway. */
            taskYIELD();
 8002d10:	4b04      	ldr	r3, [pc, #16]	@ (8002d24 <prvIdleTask+0x20>)
 8002d12:	f04f 5280 	mov.w	r2, #268435456	@ 0x10000000
 8002d16:	601a      	str	r2, [r3, #0]
 8002d18:	f3bf 8f4f 	dsb	sy
 8002d1c:	f3bf 8f6f 	isb	sy
        prvCheckTasksWaitingTermination();
 8002d20:	bf00      	nop
 8002d22:	e7f3      	b.n	8002d0c <prvIdleTask+0x8>
 8002d24:	e000ed04 	.word	0xe000ed04

08002d28 <prvInitialiseTaskLists>:

#endif /* portUSING_MPU_WRAPPERS */
/*-----------------------------------------------------------*/

static void prvInitialiseTaskLists( void )
{
 8002d28:	b580      	push	{r7, lr}
 8002d2a:	b082      	sub	sp, #8
 8002d2c:	af00      	add	r7, sp, #0
    UBaseType_t uxPriority;

    for( uxPriority = ( UBaseType_t ) 0U; uxPriority < ( UBaseType_t ) configMAX_PRIORITIES; uxPriority++ )
 8002d2e:	2300      	movs	r3, #0
 8002d30:	607b      	str	r3, [r7, #4]
 8002d32:	e00c      	b.n	8002d4e <prvInitialiseTaskLists+0x26>
    {
        vListInitialise( &( pxReadyTasksLists[ uxPriority ] ) );
 8002d34:	687a      	ldr	r2, [r7, #4]
 8002d36:	4613      	mov	r3, r2
 8002d38:	009b      	lsls	r3, r3, #2
 8002d3a:	4413      	add	r3, r2
 8002d3c:	009b      	lsls	r3, r3, #2
 8002d3e:	4a12      	ldr	r2, [pc, #72]	@ (8002d88 <prvInitialiseTaskLists+0x60>)
 8002d40:	4413      	add	r3, r2
 8002d42:	4618      	mov	r0, r3
 8002d44:	f7ff fa71 	bl	800222a <vListInitialise>
    for( uxPriority = ( UBaseType_t ) 0U; uxPriority < ( UBaseType_t ) configMAX_PRIORITIES; uxPriority++ )
 8002d48:	687b      	ldr	r3, [r7, #4]
 8002d4a:	3301      	adds	r3, #1
 8002d4c:	607b      	str	r3, [r7, #4]
 8002d4e:	687b      	ldr	r3, [r7, #4]
 8002d50:	2b06      	cmp	r3, #6
 8002d52:	d9ef      	bls.n	8002d34 <prvInitialiseTaskLists+0xc>
    }

    vListInitialise( &xDelayedTaskList1 );
 8002d54:	480d      	ldr	r0, [pc, #52]	@ (8002d8c <prvInitialiseTaskLists+0x64>)
 8002d56:	f7ff fa68 	bl	800222a <vListInitialise>
    vListInitialise( &xDelayedTaskList2 );
 8002d5a:	480d      	ldr	r0, [pc, #52]	@ (8002d90 <prvInitialiseTaskLists+0x68>)
 8002d5c:	f7ff fa65 	bl	800222a <vListInitialise>
    vListInitialise( &xPendingReadyList );
 8002d60:	480c      	ldr	r0, [pc, #48]	@ (8002d94 <prvInitialiseTaskLists+0x6c>)
 8002d62:	f7ff fa62 	bl	800222a <vListInitialise>

    #if ( INCLUDE_vTaskDelete == 1 )
    {
        vListInitialise( &xTasksWaitingTermination );
 8002d66:	480c      	ldr	r0, [pc, #48]	@ (8002d98 <prvInitialiseTaskLists+0x70>)
 8002d68:	f7ff fa5f 	bl	800222a <vListInitialise>
    }
    #endif /* INCLUDE_vTaskDelete */

    #if ( INCLUDE_vTaskSuspend == 1 )
    {
        vListInitialise( &xSuspendedTaskList );
 8002d6c:	480b      	ldr	r0, [pc, #44]	@ (8002d9c <prvInitialiseTaskLists+0x74>)
 8002d6e:	f7ff fa5c 	bl	800222a <vListInitialise>
    }
    #endif /* INCLUDE_vTaskSuspend */

    /* Start with pxDelayedTaskList using list1 and the pxOverflowDelayedTaskList
     * using list2. */
    pxDelayedTaskList = &xDelayedTaskList1;
 8002d72:	4b0b      	ldr	r3, [pc, #44]	@ (8002da0 <prvInitialiseTaskLists+0x78>)
 8002d74:	4a05      	ldr	r2, [pc, #20]	@ (8002d8c <prvInitialiseTaskLists+0x64>)
 8002d76:	601a      	str	r2, [r3, #0]
    pxOverflowDelayedTaskList = &xDelayedTaskList2;
 8002d78:	4b0a      	ldr	r3, [pc, #40]	@ (8002da4 <prvInitialiseTaskLists+0x7c>)
 8002d7a:	4a05      	ldr	r2, [pc, #20]	@ (8002d90 <prvInitialiseTaskLists+0x68>)
 8002d7c:	601a      	str	r2, [r3, #0]
}
 8002d7e:	bf00      	nop
 8002d80:	3708      	adds	r7, #8
 8002d82:	46bd      	mov	sp, r7
 8002d84:	bd80      	pop	{r7, pc}
 8002d86:	bf00      	nop
 8002d88:	20001708 	.word	0x20001708
 8002d8c:	20001794 	.word	0x20001794
 8002d90:	200017a8 	.word	0x200017a8
 8002d94:	200017c4 	.word	0x200017c4
 8002d98:	200017d8 	.word	0x200017d8
 8002d9c:	200017f0 	.word	0x200017f0
 8002da0:	200017bc 	.word	0x200017bc
 8002da4:	200017c0 	.word	0x200017c0

08002da8 <prvCheckTasksWaitingTermination>:
/*-----------------------------------------------------------*/

static void prvCheckTasksWaitingTermination( void )
{
 8002da8:	b580      	push	{r7, lr}
 8002daa:	b082      	sub	sp, #8
 8002dac:	af00      	add	r7, sp, #0
    {
        TCB_t * pxTCB;

        /* uxDeletedTasksWaitingCleanUp is used to prevent taskENTER_CRITICAL()
         * being called too often in the idle task. */
        while( uxDeletedTasksWaitingCleanUp > ( UBaseType_t ) 0U )
 8002dae:	e019      	b.n	8002de4 <prvCheckTasksWaitingTermination+0x3c>
        {
            #if ( configNUMBER_OF_CORES == 1 )
            {
                taskENTER_CRITICAL();
 8002db0:	f000 f9d0 	bl	8003154 <vPortEnterCritical>
                {
                    {
                        /* MISRA Ref 11.5.3 [Void pointer assignment] */
                        /* More details at: https://github.com/FreeRTOS/FreeRTOS-Kernel/blob/main/MISRA.md#rule-115 */
                        /* coverity[misra_c_2012_rule_11_5_violation] */
                        pxTCB = listGET_OWNER_OF_HEAD_ENTRY( ( &xTasksWaitingTermination ) );
 8002db4:	4b10      	ldr	r3, [pc, #64]	@ (8002df8 <prvCheckTasksWaitingTermination+0x50>)
 8002db6:	68db      	ldr	r3, [r3, #12]
 8002db8:	68db      	ldr	r3, [r3, #12]
 8002dba:	607b      	str	r3, [r7, #4]
                        ( void ) uxListRemove( &( pxTCB->xStateListItem ) );
 8002dbc:	687b      	ldr	r3, [r7, #4]
 8002dbe:	3304      	adds	r3, #4
 8002dc0:	4618      	mov	r0, r3
 8002dc2:	f7ff fa77 	bl	80022b4 <uxListRemove>
                        --uxCurrentNumberOfTasks;
 8002dc6:	4b0d      	ldr	r3, [pc, #52]	@ (8002dfc <prvCheckTasksWaitingTermination+0x54>)
 8002dc8:	681b      	ldr	r3, [r3, #0]
 8002dca:	3b01      	subs	r3, #1
 8002dcc:	4a0b      	ldr	r2, [pc, #44]	@ (8002dfc <prvCheckTasksWaitingTermination+0x54>)
 8002dce:	6013      	str	r3, [r2, #0]
                        --uxDeletedTasksWaitingCleanUp;
 8002dd0:	4b0b      	ldr	r3, [pc, #44]	@ (8002e00 <prvCheckTasksWaitingTermination+0x58>)
 8002dd2:	681b      	ldr	r3, [r3, #0]
 8002dd4:	3b01      	subs	r3, #1
 8002dd6:	4a0a      	ldr	r2, [pc, #40]	@ (8002e00 <prvCheckTasksWaitingTermination+0x58>)
 8002dd8:	6013      	str	r3, [r2, #0]
                    }
                }
                taskEXIT_CRITICAL();
 8002dda:	f000 f9ed 	bl	80031b8 <vPortExitCritical>

                prvDeleteTCB( pxTCB );
 8002dde:	6878      	ldr	r0, [r7, #4]
 8002de0:	f000 f810 	bl	8002e04 <prvDeleteTCB>
        while( uxDeletedTasksWaitingCleanUp > ( UBaseType_t ) 0U )
 8002de4:	4b06      	ldr	r3, [pc, #24]	@ (8002e00 <prvCheckTasksWaitingTermination+0x58>)
 8002de6:	681b      	ldr	r3, [r3, #0]
 8002de8:	2b00      	cmp	r3, #0
 8002dea:	d1e1      	bne.n	8002db0 <prvCheckTasksWaitingTermination+0x8>
            }
            #endif /* #if( configNUMBER_OF_CORES == 1 ) */
        }
    }
    #endif /* INCLUDE_vTaskDelete */
}
 8002dec:	bf00      	nop
 8002dee:	bf00      	nop
 8002df0:	3708      	adds	r7, #8
 8002df2:	46bd      	mov	sp, r7
 8002df4:	bd80      	pop	{r7, pc}
 8002df6:	bf00      	nop
 8002df8:	200017d8 	.word	0x200017d8
 8002dfc:	20001804 	.word	0x20001804
 8002e00:	200017ec 	.word	0x200017ec

08002e04 <prvDeleteTCB>:
/*-----------------------------------------------------------*/

#if ( INCLUDE_vTaskDelete == 1 )

    static void prvDeleteTCB( TCB_t * pxTCB )
    {
 8002e04:	b580      	push	{r7, lr}
 8002e06:	b082      	sub	sp, #8
 8002e08:	af00      	add	r7, sp, #0
 8002e0a:	6078      	str	r0, [r7, #4]

        #if ( ( configSUPPORT_DYNAMIC_ALLOCATION == 1 ) && ( configSUPPORT_STATIC_ALLOCATION == 0 ) && ( portUSING_MPU_WRAPPERS == 0 ) )
        {
            /* The task can only have been allocated dynamically - free both
             * the stack and TCB. */
            vPortFreeStack( pxTCB->pxStack );
 8002e0c:	687b      	ldr	r3, [r7, #4]
 8002e0e:	6b1b      	ldr	r3, [r3, #48]	@ 0x30
 8002e10:	4618      	mov	r0, r3
 8002e12:	f000 fbff 	bl	8003614 <vPortFree>
            vPortFree( pxTCB );
 8002e16:	6878      	ldr	r0, [r7, #4]
 8002e18:	f000 fbfc 	bl	8003614 <vPortFree>
                configASSERT( pxTCB->ucStaticallyAllocated == tskSTATICALLY_ALLOCATED_STACK_AND_TCB );
                mtCOVERAGE_TEST_MARKER();
            }
        }
        #endif /* configSUPPORT_DYNAMIC_ALLOCATION */
    }
 8002e1c:	bf00      	nop
 8002e1e:	3708      	adds	r7, #8
 8002e20:	46bd      	mov	sp, r7
 8002e22:	bd80      	pop	{r7, pc}

08002e24 <prvResetNextTaskUnblockTime>:

#endif /* INCLUDE_vTaskDelete */
/*-----------------------------------------------------------*/

static void prvResetNextTaskUnblockTime( void )
{
 8002e24:	b480      	push	{r7}
 8002e26:	af00      	add	r7, sp, #0
    if( listLIST_IS_EMPTY( pxDelayedTaskList ) != pdFALSE )
 8002e28:	4b0a      	ldr	r3, [pc, #40]	@ (8002e54 <prvResetNextTaskUnblockTime+0x30>)
 8002e2a:	681b      	ldr	r3, [r3, #0]
 8002e2c:	681b      	ldr	r3, [r3, #0]
 8002e2e:	2b00      	cmp	r3, #0
 8002e30:	d104      	bne.n	8002e3c <prvResetNextTaskUnblockTime+0x18>
    {
        /* The new current delayed list is empty.  Set xNextTaskUnblockTime to
         * the maximum possible value so it is  extremely unlikely that the
         * if( xTickCount >= xNextTaskUnblockTime ) test will pass until
         * there is an item in the delayed list. */
        xNextTaskUnblockTime = portMAX_DELAY;
 8002e32:	4b09      	ldr	r3, [pc, #36]	@ (8002e58 <prvResetNextTaskUnblockTime+0x34>)
 8002e34:	f04f 32ff 	mov.w	r2, #4294967295
 8002e38:	601a      	str	r2, [r3, #0]
         * the item at the head of the delayed list.  This is the time at
         * which the task at the head of the delayed list should be removed
         * from the Blocked state. */
        xNextTaskUnblockTime = listGET_ITEM_VALUE_OF_HEAD_ENTRY( pxDelayedTaskList );
    }
}
 8002e3a:	e005      	b.n	8002e48 <prvResetNextTaskUnblockTime+0x24>
        xNextTaskUnblockTime = listGET_ITEM_VALUE_OF_HEAD_ENTRY( pxDelayedTaskList );
 8002e3c:	4b05      	ldr	r3, [pc, #20]	@ (8002e54 <prvResetNextTaskUnblockTime+0x30>)
 8002e3e:	681b      	ldr	r3, [r3, #0]
 8002e40:	68db      	ldr	r3, [r3, #12]
 8002e42:	681b      	ldr	r3, [r3, #0]
 8002e44:	4a04      	ldr	r2, [pc, #16]	@ (8002e58 <prvResetNextTaskUnblockTime+0x34>)
 8002e46:	6013      	str	r3, [r2, #0]
}
 8002e48:	bf00      	nop
 8002e4a:	46bd      	mov	sp, r7
 8002e4c:	f85d 7b04 	ldr.w	r7, [sp], #4
 8002e50:	4770      	bx	lr
 8002e52:	bf00      	nop
 8002e54:	200017bc 	.word	0x200017bc
 8002e58:	20001824 	.word	0x20001824

08002e5c <pxPortInitialiseStack>:
 * See header file for description.
 */
StackType_t * pxPortInitialiseStack( StackType_t * pxTopOfStack,
                                     TaskFunction_t pxCode,
                                     void * pvParameters )
{
 8002e5c:	b480      	push	{r7}
 8002e5e:	b085      	sub	sp, #20
 8002e60:	af00      	add	r7, sp, #0
 8002e62:	60f8      	str	r0, [r7, #12]
 8002e64:	60b9      	str	r1, [r7, #8]
 8002e66:	607a      	str	r2, [r7, #4]
    /* Simulate the stack frame as it would be created by a context switch
     * interrupt. */

    /* Offset added to account for the way the MCU uses the stack on entry/exit
     * of interrupts, and to ensure alignment. */
    pxTopOfStack--;
 8002e68:	68fb      	ldr	r3, [r7, #12]
 8002e6a:	3b04      	subs	r3, #4
 8002e6c:	60fb      	str	r3, [r7, #12]

    *pxTopOfStack = portINITIAL_XPSR;                                    /* xPSR */
 8002e6e:	68fb      	ldr	r3, [r7, #12]
 8002e70:	f04f 7280 	mov.w	r2, #16777216	@ 0x1000000
 8002e74:	601a      	str	r2, [r3, #0]
    pxTopOfStack--;
 8002e76:	68fb      	ldr	r3, [r7, #12]
 8002e78:	3b04      	subs	r3, #4
 8002e7a:	60fb      	str	r3, [r7, #12]
    *pxTopOfStack = ( ( StackType_t ) pxCode ) & portSTART_ADDRESS_MASK; /* PC */
 8002e7c:	68bb      	ldr	r3, [r7, #8]
 8002e7e:	f023 0201 	bic.w	r2, r3, #1
 8002e82:	68fb      	ldr	r3, [r7, #12]
 8002e84:	601a      	str	r2, [r3, #0]
    pxTopOfStack--;
 8002e86:	68fb      	ldr	r3, [r7, #12]
 8002e88:	3b04      	subs	r3, #4
 8002e8a:	60fb      	str	r3, [r7, #12]
    *pxTopOfStack = ( StackType_t ) portTASK_RETURN_ADDRESS;             /* LR */
 8002e8c:	4a0c      	ldr	r2, [pc, #48]	@ (8002ec0 <pxPortInitialiseStack+0x64>)
 8002e8e:	68fb      	ldr	r3, [r7, #12]
 8002e90:	601a      	str	r2, [r3, #0]

    /* Save code space by skipping register initialisation. */
    pxTopOfStack -= 5;                            /* R12, R3, R2 and R1. */
 8002e92:	68fb      	ldr	r3, [r7, #12]
 8002e94:	3b14      	subs	r3, #20
 8002e96:	60fb      	str	r3, [r7, #12]
    *pxTopOfStack = ( StackType_t ) pvParameters; /* R0 */
 8002e98:	687a      	ldr	r2, [r7, #4]
 8002e9a:	68fb      	ldr	r3, [r7, #12]
 8002e9c:	601a      	str	r2, [r3, #0]

    /* A save method is being used that requires each task to maintain its
     * own exec return value. */
    pxTopOfStack--;
 8002e9e:	68fb      	ldr	r3, [r7, #12]
 8002ea0:	3b04      	subs	r3, #4
 8002ea2:	60fb      	str	r3, [r7, #12]
    *pxTopOfStack = portINITIAL_EXC_RETURN;
 8002ea4:	68fb      	ldr	r3, [r7, #12]
 8002ea6:	f06f 0202 	mvn.w	r2, #2
 8002eaa:	601a      	str	r2, [r3, #0]

    pxTopOfStack -= 8; /* R11, R10, R9, R8, R7, R6, R5 and R4. */
 8002eac:	68fb      	ldr	r3, [r7, #12]
 8002eae:	3b20      	subs	r3, #32
 8002eb0:	60fb      	str	r3, [r7, #12]

    return pxTopOfStack;
 8002eb2:	68fb      	ldr	r3, [r7, #12]
}
 8002eb4:	4618      	mov	r0, r3
 8002eb6:	3714      	adds	r7, #20
 8002eb8:	46bd      	mov	sp, r7
 8002eba:	f85d 7b04 	ldr.w	r7, [sp], #4
 8002ebe:	4770      	bx	lr
 8002ec0:	08002ec5 	.word	0x08002ec5

08002ec4 <prvTaskExitError>:
/*-----------------------------------------------------------*/

static void prvTaskExitError( void )
{
 8002ec4:	b480      	push	{r7}
 8002ec6:	b085      	sub	sp, #20
 8002ec8:	af00      	add	r7, sp, #0
    volatile uint32_t ulDummy = 0;
 8002eca:	2300      	movs	r3, #0
 8002ecc:	607b      	str	r3, [r7, #4]
     * its caller as there is nothing to return to.  If a task wants to exit it
     * should instead call vTaskDelete( NULL ).
     *
     * Artificially force an assert() to be triggered if configASSERT() is
     * defined, then stop here so application writers can catch the error. */
    configASSERT( uxCriticalNesting == ~0UL );
 8002ece:	4b13      	ldr	r3, [pc, #76]	@ (8002f1c <prvTaskExitError+0x58>)
 8002ed0:	681b      	ldr	r3, [r3, #0]
 8002ed2:	f1b3 3fff 	cmp.w	r3, #4294967295
 8002ed6:	d00b      	beq.n	8002ef0 <prvTaskExitError+0x2c>
    __asm volatile
 8002ed8:	f04f 0350 	mov.w	r3, #80	@ 0x50
 8002edc:	f383 8811 	msr	BASEPRI, r3
 8002ee0:	f3bf 8f6f 	isb	sy
 8002ee4:	f3bf 8f4f 	dsb	sy
 8002ee8:	60fb      	str	r3, [r7, #12]
}
 8002eea:	bf00      	nop
 8002eec:	bf00      	nop
 8002eee:	e7fd      	b.n	8002eec <prvTaskExitError+0x28>
    __asm volatile
 8002ef0:	f04f 0350 	mov.w	r3, #80	@ 0x50
 8002ef4:	f383 8811 	msr	BASEPRI, r3
 8002ef8:	f3bf 8f6f 	isb	sy
 8002efc:	f3bf 8f4f 	dsb	sy
 8002f00:	60bb      	str	r3, [r7, #8]
}
 8002f02:	bf00      	nop
    portDISABLE_INTERRUPTS();

    while( ulDummy == 0 )
 8002f04:	bf00      	nop
 8002f06:	687b      	ldr	r3, [r7, #4]
 8002f08:	2b00      	cmp	r3, #0
 8002f0a:	d0fc      	beq.n	8002f06 <prvTaskExitError+0x42>
         * about code appearing after this function is called - making ulDummy
         * volatile makes the compiler think the function could return and
         * therefore not output an 'unreachable code' warning for code that appears
         * after it. */
    }
}
 8002f0c:	bf00      	nop
 8002f0e:	bf00      	nop
 8002f10:	3714      	adds	r7, #20
 8002f12:	46bd      	mov	sp, r7
 8002f14:	f85d 7b04 	ldr.w	r7, [sp], #4
 8002f18:	4770      	bx	lr
 8002f1a:	bf00      	nop
 8002f1c:	20000004 	.word	0x20000004

08002f20 <vPortSVCHandler>:
/*-----------------------------------------------------------*/

void vPortSVCHandler( void )
{
    __asm volatile (
 8002f20:	4b07      	ldr	r3, [pc, #28]	@ (8002f40 <pxCurrentTCBConst2>)
 8002f22:	6819      	ldr	r1, [r3, #0]
 8002f24:	6808      	ldr	r0, [r1, #0]
 8002f26:	e8b0 4ff0 	ldmia.w	r0!, {r4, r5, r6, r7, r8, r9, sl, fp, lr}
 8002f2a:	f380 8809 	msr	PSP, r0
 8002f2e:	f3bf 8f6f 	isb	sy
 8002f32:	f04f 0000 	mov.w	r0, #0
 8002f36:	f380 8811 	msr	BASEPRI, r0
 8002f3a:	4770      	bx	lr
 8002f3c:	f3af 8000 	nop.w

08002f40 <pxCurrentTCBConst2>:
 8002f40:	20001704 	.word	0x20001704
        "   bx r14                          \n"
        "                                   \n"
        "   .align 4                        \n"
        "pxCurrentTCBConst2: .word pxCurrentTCB             \n"
        );
}
 8002f44:	bf00      	nop
 8002f46:	bf00      	nop

08002f48 <prvPortStartFirstTask>:
{
    /* Start the first task.  This also clears the bit that indicates the FPU is
     * in use in case the FPU was used before the scheduler was started - which
     * would otherwise result in the unnecessary leaving of space in the SVC stack
     * for lazy saving of FPU registers. */
    __asm volatile (
 8002f48:	4808      	ldr	r0, [pc, #32]	@ (8002f6c <prvPortStartFirstTask+0x24>)
 8002f4a:	6800      	ldr	r0, [r0, #0]
 8002f4c:	6800      	ldr	r0, [r0, #0]
 8002f4e:	f380 8808 	msr	MSP, r0
 8002f52:	f04f 0000 	mov.w	r0, #0
 8002f56:	f380 8814 	msr	CONTROL, r0
 8002f5a:	b662      	cpsie	i
 8002f5c:	b661      	cpsie	f
 8002f5e:	f3bf 8f4f 	dsb	sy
 8002f62:	f3bf 8f6f 	isb	sy
 8002f66:	df00      	svc	0
 8002f68:	bf00      	nop
 8002f6a:	0000      	.short	0x0000
 8002f6c:	e000ed08 	.word	0xe000ed08
        " isb                   \n"
        " svc 0                 \n" /* System call to start first task. */
        " nop                   \n"
        " .ltorg                \n"
        );
}
 8002f70:	bf00      	nop
 8002f72:	bf00      	nop

08002f74 <xPortStartScheduler>:

/*
 * See header file for description.
 */
BaseType_t xPortStartScheduler( void )
{
 8002f74:	b580      	push	{r7, lr}
 8002f76:	b08c      	sub	sp, #48	@ 0x30
 8002f78:	af00      	add	r7, sp, #0
    /* This port can be used on all revisions of the Cortex-M7 core other than
     * the r0p1 parts.  r0p1 parts should use the port from the
     * /source/portable/GCC/ARM_CM7/r0p1 directory. */
    configASSERT( portCPUID != portCORTEX_M7_r0p1_ID );
 8002f7a:	4b69      	ldr	r3, [pc, #420]	@ (8003120 <xPortStartScheduler+0x1ac>)
 8002f7c:	681b      	ldr	r3, [r3, #0]
 8002f7e:	4a69      	ldr	r2, [pc, #420]	@ (8003124 <xPortStartScheduler+0x1b0>)
 8002f80:	4293      	cmp	r3, r2
 8002f82:	d10b      	bne.n	8002f9c <xPortStartScheduler+0x28>
    __asm volatile
 8002f84:	f04f 0350 	mov.w	r3, #80	@ 0x50
 8002f88:	f383 8811 	msr	BASEPRI, r3
 8002f8c:	f3bf 8f6f 	isb	sy
 8002f90:	f3bf 8f4f 	dsb	sy
 8002f94:	623b      	str	r3, [r7, #32]
}
 8002f96:	bf00      	nop
 8002f98:	bf00      	nop
 8002f9a:	e7fd      	b.n	8002f98 <xPortStartScheduler+0x24>
    configASSERT( portCPUID != portCORTEX_M7_r0p0_ID );
 8002f9c:	4b60      	ldr	r3, [pc, #384]	@ (8003120 <xPortStartScheduler+0x1ac>)
 8002f9e:	681b      	ldr	r3, [r3, #0]
 8002fa0:	4a61      	ldr	r2, [pc, #388]	@ (8003128 <xPortStartScheduler+0x1b4>)
 8002fa2:	4293      	cmp	r3, r2
 8002fa4:	d10b      	bne.n	8002fbe <xPortStartScheduler+0x4a>
    __asm volatile
 8002fa6:	f04f 0350 	mov.w	r3, #80	@ 0x50
 8002faa:	f383 8811 	msr	BASEPRI, r3
 8002fae:	f3bf 8f6f 	isb	sy
 8002fb2:	f3bf 8f4f 	dsb	sy
 8002fb6:	627b      	str	r3, [r7, #36]	@ 0x24
}
 8002fb8:	bf00      	nop
 8002fba:	bf00      	nop
 8002fbc:	e7fd      	b.n	8002fba <xPortStartScheduler+0x46>
     * configCHECK_HANDLER_INSTALLATION to 0 in their FreeRTOSConfig.h. Direct
     * routing, which is validated here when configCHECK_HANDLER_INSTALLATION
     * is 1, should be preferred when possible. */
    #if ( configCHECK_HANDLER_INSTALLATION == 1 )
    {
        const portISR_t * const pxVectorTable = portSCB_VTOR_REG;
 8002fbe:	4b5b      	ldr	r3, [pc, #364]	@ (800312c <xPortStartScheduler+0x1b8>)
 8002fc0:	681b      	ldr	r3, [r3, #0]
 8002fc2:	62fb      	str	r3, [r7, #44]	@ 0x2c
         * https://www.FreeRTOS.org/FAQHelp.html.
         *
         * Systems with a configurable address for the interrupt vector table
         * can also encounter assertion failures or even system faults here if
         * VTOR is not set correctly to point to the application's vector table. */
        configASSERT( pxVectorTable[ portVECTOR_INDEX_SVC ] == vPortSVCHandler );
 8002fc4:	6afb      	ldr	r3, [r7, #44]	@ 0x2c
 8002fc6:	332c      	adds	r3, #44	@ 0x2c
 8002fc8:	681b      	ldr	r3, [r3, #0]
 8002fca:	4a59      	ldr	r2, [pc, #356]	@ (8003130 <xPortStartScheduler+0x1bc>)
 8002fcc:	4293      	cmp	r3, r2
 8002fce:	d00b      	beq.n	8002fe8 <xPortStartScheduler+0x74>
    __asm volatile
 8002fd0:	f04f 0350 	mov.w	r3, #80	@ 0x50
 8002fd4:	f383 8811 	msr	BASEPRI, r3
 8002fd8:	f3bf 8f6f 	isb	sy
 8002fdc:	f3bf 8f4f 	dsb	sy
 8002fe0:	61fb      	str	r3, [r7, #28]
}
 8002fe2:	bf00      	nop
 8002fe4:	bf00      	nop
 8002fe6:	e7fd      	b.n	8002fe4 <xPortStartScheduler+0x70>
        configASSERT( pxVectorTable[ portVECTOR_INDEX_PENDSV ] == xPortPendSVHandler );
 8002fe8:	6afb      	ldr	r3, [r7, #44]	@ 0x2c
 8002fea:	3338      	adds	r3, #56	@ 0x38
 8002fec:	681b      	ldr	r3, [r3, #0]
 8002fee:	4a51      	ldr	r2, [pc, #324]	@ (8003134 <xPortStartScheduler+0x1c0>)
 8002ff0:	4293      	cmp	r3, r2
 8002ff2:	d00b      	beq.n	800300c <xPortStartScheduler+0x98>
    __asm volatile
 8002ff4:	f04f 0350 	mov.w	r3, #80	@ 0x50
 8002ff8:	f383 8811 	msr	BASEPRI, r3
 8002ffc:	f3bf 8f6f 	isb	sy
 8003000:	f3bf 8f4f 	dsb	sy
 8003004:	61bb      	str	r3, [r7, #24]
}
 8003006:	bf00      	nop
 8003008:	bf00      	nop
 800300a:	e7fd      	b.n	8003008 <xPortStartScheduler+0x94>
    #endif /* configCHECK_HANDLER_INSTALLATION */

    #if ( configASSERT_DEFINED == 1 )
    {
        volatile uint8_t ucOriginalPriority;
        volatile uint32_t ulImplementedPrioBits = 0;
 800300c:	2300      	movs	r3, #0
 800300e:	60bb      	str	r3, [r7, #8]
        volatile uint8_t * const pucFirstUserPriorityRegister = ( volatile uint8_t * const ) ( portNVIC_IP_REGISTERS_OFFSET_16 + portFIRST_USER_INTERRUPT_NUMBER );
 8003010:	4b49      	ldr	r3, [pc, #292]	@ (8003138 <xPortStartScheduler+0x1c4>)
 8003012:	62bb      	str	r3, [r7, #40]	@ 0x28
         * functions can be called.  ISR safe functions are those that end in
         * "FromISR".  FreeRTOS maintains separate thread and ISR API functions to
         * ensure interrupt entry is as fast and simple as possible.
         *
         * Save the interrupt priority value that is about to be clobbered. */
        ucOriginalPriority = *pucFirstUserPriorityRegister;
 8003014:	6abb      	ldr	r3, [r7, #40]	@ 0x28
 8003016:	781b      	ldrb	r3, [r3, #0]
 8003018:	b2db      	uxtb	r3, r3
 800301a:	73fb      	strb	r3, [r7, #15]

        /* Determine the number of priority bits available.  First write to all
         * possible bits. */
        *pucFirstUserPriorityRegister = portMAX_8_BIT_VALUE;
 800301c:	6abb      	ldr	r3, [r7, #40]	@ 0x28
 800301e:	22ff      	movs	r2, #255	@ 0xff
 8003020:	701a      	strb	r2, [r3, #0]

        /* Read the value back to see how many bits stuck. */
        ucMaxPriorityValue = *pucFirstUserPriorityRegister;
 8003022:	6abb      	ldr	r3, [r7, #40]	@ 0x28
 8003024:	781b      	ldrb	r3, [r3, #0]
 8003026:	b2db      	uxtb	r3, r3
 8003028:	71fb      	strb	r3, [r7, #7]

        /* Use the same mask on the maximum system call priority. */
        ucMaxSysCallPriority = configMAX_SYSCALL_INTERRUPT_PRIORITY & ucMaxPriorityValue;
 800302a:	79fb      	ldrb	r3, [r7, #7]
 800302c:	b2db      	uxtb	r3, r3
 800302e:	f003 0350 	and.w	r3, r3, #80	@ 0x50
 8003032:	b2da      	uxtb	r2, r3
 8003034:	4b41      	ldr	r3, [pc, #260]	@ (800313c <xPortStartScheduler+0x1c8>)
 8003036:	701a      	strb	r2, [r3, #0]
         * accounting for the number of priority bits supported by the
         * hardware. A priority of 0 is invalid because setting the BASEPRI
         * register to 0 unmasks all interrupts, and interrupts with priority 0
         * cannot be masked using BASEPRI.
         * See https://www.FreeRTOS.org/RTOS-Cortex-M3-M4.html */
        configASSERT( ucMaxSysCallPriority );
 8003038:	4b40      	ldr	r3, [pc, #256]	@ (800313c <xPortStartScheduler+0x1c8>)
 800303a:	781b      	ldrb	r3, [r3, #0]
 800303c:	2b00      	cmp	r3, #0
 800303e:	d10b      	bne.n	8003058 <xPortStartScheduler+0xe4>
    __asm volatile
 8003040:	f04f 0350 	mov.w	r3, #80	@ 0x50
 8003044:	f383 8811 	msr	BASEPRI, r3
 8003048:	f3bf 8f6f 	isb	sy
 800304c:	f3bf 8f4f 	dsb	sy
 8003050:	617b      	str	r3, [r7, #20]
}
 8003052:	bf00      	nop
 8003054:	bf00      	nop
 8003056:	e7fd      	b.n	8003054 <xPortStartScheduler+0xe0>

        /* Check that the bits not implemented in hardware are zero in
         * configMAX_SYSCALL_INTERRUPT_PRIORITY. */
        configASSERT( ( configMAX_SYSCALL_INTERRUPT_PRIORITY & ( ~ucMaxPriorityValue ) ) == 0U );
 8003058:	79fb      	ldrb	r3, [r7, #7]
 800305a:	b2db      	uxtb	r3, r3
 800305c:	43db      	mvns	r3, r3
 800305e:	f003 0350 	and.w	r3, r3, #80	@ 0x50
 8003062:	2b00      	cmp	r3, #0
 8003064:	d013      	beq.n	800308e <xPortStartScheduler+0x11a>
    __asm volatile
 8003066:	f04f 0350 	mov.w	r3, #80	@ 0x50
 800306a:	f383 8811 	msr	BASEPRI, r3
 800306e:	f3bf 8f6f 	isb	sy
 8003072:	f3bf 8f4f 	dsb	sy
 8003076:	613b      	str	r3, [r7, #16]
}
 8003078:	bf00      	nop
 800307a:	bf00      	nop
 800307c:	e7fd      	b.n	800307a <xPortStartScheduler+0x106>
        /* Calculate the maximum acceptable priority group value for the number
         * of bits read back. */

        while( ( ucMaxPriorityValue & portTOP_BIT_OF_BYTE ) == portTOP_BIT_OF_BYTE )
        {
            ulImplementedPrioBits++;
 800307e:	68bb      	ldr	r3, [r7, #8]
 8003080:	3301      	adds	r3, #1
 8003082:	60bb      	str	r3, [r7, #8]
            ucMaxPriorityValue <<= ( uint8_t ) 0x01;
 8003084:	79fb      	ldrb	r3, [r7, #7]
 8003086:	b2db      	uxtb	r3, r3
 8003088:	005b      	lsls	r3, r3, #1
 800308a:	b2db      	uxtb	r3, r3
 800308c:	71fb      	strb	r3, [r7, #7]
        while( ( ucMaxPriorityValue & portTOP_BIT_OF_BYTE ) == portTOP_BIT_OF_BYTE )
 800308e:	79fb      	ldrb	r3, [r7, #7]
 8003090:	b2db      	uxtb	r3, r3
 8003092:	f003 0380 	and.w	r3, r3, #128	@ 0x80
 8003096:	2b80      	cmp	r3, #128	@ 0x80
 8003098:	d0f1      	beq.n	800307e <xPortStartScheduler+0x10a>
        }

        if( ulImplementedPrioBits == 8 )
 800309a:	68bb      	ldr	r3, [r7, #8]
 800309c:	2b08      	cmp	r3, #8
 800309e:	d103      	bne.n	80030a8 <xPortStartScheduler+0x134>
             *
             * The following assert ensures that the sub-priority bit in the
             * configMAX_SYSCALL_INTERRUPT_PRIORITY is clear to avoid the above mentioned
             * confusion. */
            configASSERT( ( configMAX_SYSCALL_INTERRUPT_PRIORITY & 0x1U ) == 0U );
            ulMaxPRIGROUPValue = 0;
 80030a0:	4b27      	ldr	r3, [pc, #156]	@ (8003140 <xPortStartScheduler+0x1cc>)
 80030a2:	2200      	movs	r2, #0
 80030a4:	601a      	str	r2, [r3, #0]
 80030a6:	e004      	b.n	80030b2 <xPortStartScheduler+0x13e>
        }
        else
        {
            ulMaxPRIGROUPValue = portMAX_PRIGROUP_BITS - ulImplementedPrioBits;
 80030a8:	68bb      	ldr	r3, [r7, #8]
 80030aa:	f1c3 0307 	rsb	r3, r3, #7
 80030ae:	4a24      	ldr	r2, [pc, #144]	@ (8003140 <xPortStartScheduler+0x1cc>)
 80030b0:	6013      	str	r3, [r2, #0]
        }

        /* Shift the priority group value back to its position within the AIRCR
         * register. */
        ulMaxPRIGROUPValue <<= portPRIGROUP_SHIFT;
 80030b2:	4b23      	ldr	r3, [pc, #140]	@ (8003140 <xPortStartScheduler+0x1cc>)
 80030b4:	681b      	ldr	r3, [r3, #0]
 80030b6:	021b      	lsls	r3, r3, #8
 80030b8:	4a21      	ldr	r2, [pc, #132]	@ (8003140 <xPortStartScheduler+0x1cc>)
 80030ba:	6013      	str	r3, [r2, #0]
        ulMaxPRIGROUPValue &= portPRIORITY_GROUP_MASK;
 80030bc:	4b20      	ldr	r3, [pc, #128]	@ (8003140 <xPortStartScheduler+0x1cc>)
 80030be:	681b      	ldr	r3, [r3, #0]
 80030c0:	f403 63e0 	and.w	r3, r3, #1792	@ 0x700
 80030c4:	4a1e      	ldr	r2, [pc, #120]	@ (8003140 <xPortStartScheduler+0x1cc>)
 80030c6:	6013      	str	r3, [r2, #0]

        /* Restore the clobbered interrupt priority register to its original
         * value. */
        *pucFirstUserPriorityRegister = ucOriginalPriority;
 80030c8:	7bfb      	ldrb	r3, [r7, #15]
 80030ca:	b2da      	uxtb	r2, r3
 80030cc:	6abb      	ldr	r3, [r7, #40]	@ 0x28
 80030ce:	701a      	strb	r2, [r3, #0]
    }
    #endif /* configASSERT_DEFINED */

    /* Make PendSV and SysTick the lowest priority interrupts, and make SVCall
     * the highest priority. */
    portNVIC_SHPR3_REG |= portNVIC_PENDSV_PRI;
 80030d0:	4b1c      	ldr	r3, [pc, #112]	@ (8003144 <xPortStartScheduler+0x1d0>)
 80030d2:	681b      	ldr	r3, [r3, #0]
 80030d4:	4a1b      	ldr	r2, [pc, #108]	@ (8003144 <xPortStartScheduler+0x1d0>)
 80030d6:	f443 037f 	orr.w	r3, r3, #16711680	@ 0xff0000
 80030da:	6013      	str	r3, [r2, #0]
    portNVIC_SHPR3_REG |= portNVIC_SYSTICK_PRI;
 80030dc:	4b19      	ldr	r3, [pc, #100]	@ (8003144 <xPortStartScheduler+0x1d0>)
 80030de:	681b      	ldr	r3, [r3, #0]
 80030e0:	4a18      	ldr	r2, [pc, #96]	@ (8003144 <xPortStartScheduler+0x1d0>)
 80030e2:	f043 437f 	orr.w	r3, r3, #4278190080	@ 0xff000000
 80030e6:	6013      	str	r3, [r2, #0]
    portNVIC_SHPR2_REG = 0;
 80030e8:	4b17      	ldr	r3, [pc, #92]	@ (8003148 <xPortStartScheduler+0x1d4>)
 80030ea:	2200      	movs	r2, #0
 80030ec:	601a      	str	r2, [r3, #0]

    /* Start the timer that generates the tick ISR.  Interrupts are disabled
     * here already. */
    vPortSetupTimerInterrupt();
 80030ee:	f000 f8ed 	bl	80032cc <vPortSetupTimerInterrupt>

    /* Initialise the critical nesting count ready for the first task. */
    uxCriticalNesting = 0;
 80030f2:	4b16      	ldr	r3, [pc, #88]	@ (800314c <xPortStartScheduler+0x1d8>)
 80030f4:	2200      	movs	r2, #0
 80030f6:	601a      	str	r2, [r3, #0]

    /* Ensure the VFP is enabled - it should be anyway. */
    vPortEnableVFP();
 80030f8:	f000 f90c 	bl	8003314 <vPortEnableVFP>

    /* Lazy save always. */
    *( portFPCCR ) |= portASPEN_AND_LSPEN_BITS;
 80030fc:	4b14      	ldr	r3, [pc, #80]	@ (8003150 <xPortStartScheduler+0x1dc>)
 80030fe:	681b      	ldr	r3, [r3, #0]
 8003100:	4a13      	ldr	r2, [pc, #76]	@ (8003150 <xPortStartScheduler+0x1dc>)
 8003102:	f043 4340 	orr.w	r3, r3, #3221225472	@ 0xc0000000
 8003106:	6013      	str	r3, [r2, #0]

    /* Start the first task. */
    prvPortStartFirstTask();
 8003108:	f7ff ff1e 	bl	8002f48 <prvPortStartFirstTask>
     * exit error function to prevent compiler warnings about a static function
     * not being called in the case that the application writer overrides this
     * functionality by defining configTASK_RETURN_ADDRESS.  Call
     * vTaskSwitchContext() so link time optimisation does not remove the
     * symbol. */
    vTaskSwitchContext();
 800310c:	f7ff fd8e 	bl	8002c2c <vTaskSwitchContext>
    prvTaskExitError();
 8003110:	f7ff fed8 	bl	8002ec4 <prvTaskExitError>

    /* Should not get here! */
    return 0;
 8003114:	2300      	movs	r3, #0
}
 8003116:	4618      	mov	r0, r3
 8003118:	3730      	adds	r7, #48	@ 0x30
 800311a:	46bd      	mov	sp, r7
 800311c:	bd80      	pop	{r7, pc}
 800311e:	bf00      	nop
 8003120:	e000ed00 	.word	0xe000ed00
 8003124:	410fc271 	.word	0x410fc271
 8003128:	410fc270 	.word	0x410fc270
 800312c:	e000ed08 	.word	0xe000ed08
 8003130:	08002f21 	.word	0x08002f21
 8003134:	08003211 	.word	0x08003211
 8003138:	e000e400 	.word	0xe000e400
 800313c:	20001830 	.word	0x20001830
 8003140:	20001834 	.word	0x20001834
 8003144:	e000ed20 	.word	0xe000ed20
 8003148:	e000ed1c 	.word	0xe000ed1c
 800314c:	20000004 	.word	0x20000004
 8003150:	e000ef34 	.word	0xe000ef34

08003154 <vPortEnterCritical>:
    configASSERT( uxCriticalNesting == 1000UL );
}
/*-----------------------------------------------------------*/

void vPortEnterCritical( void )
{
 8003154:	b480      	push	{r7}
 8003156:	b083      	sub	sp, #12
 8003158:	af00      	add	r7, sp, #0
    __asm volatile
 800315a:	f04f 0350 	mov.w	r3, #80	@ 0x50
 800315e:	f383 8811 	msr	BASEPRI, r3
 8003162:	f3bf 8f6f 	isb	sy
 8003166:	f3bf 8f4f 	dsb	sy
 800316a:	607b      	str	r3, [r7, #4]
}
 800316c:	bf00      	nop
    portDISABLE_INTERRUPTS();
    uxCriticalNesting++;
 800316e:	4b10      	ldr	r3, [pc, #64]	@ (80031b0 <vPortEnterCritical+0x5c>)
 8003170:	681b      	ldr	r3, [r3, #0]
 8003172:	3301      	adds	r3, #1
 8003174:	4a0e      	ldr	r2, [pc, #56]	@ (80031b0 <vPortEnterCritical+0x5c>)
 8003176:	6013      	str	r3, [r2, #0]
    /* This is not the interrupt safe version of the enter critical function so
     * assert() if it is being called from an interrupt context.  Only API
     * functions that end in "FromISR" can be used in an interrupt.  Only assert if
     * the critical nesting count is 1 to protect against recursive calls if the
     * assert function also uses a critical section. */
    if( uxCriticalNesting == 1 )
 8003178:	4b0d      	ldr	r3, [pc, #52]	@ (80031b0 <vPortEnterCritical+0x5c>)
 800317a:	681b      	ldr	r3, [r3, #0]
 800317c:	2b01      	cmp	r3, #1
 800317e:	d110      	bne.n	80031a2 <vPortEnterCritical+0x4e>
    {
        configASSERT( ( portNVIC_INT_CTRL_REG & portVECTACTIVE_MASK ) == 0 );
 8003180:	4b0c      	ldr	r3, [pc, #48]	@ (80031b4 <vPortEnterCritical+0x60>)
 8003182:	681b      	ldr	r3, [r3, #0]
 8003184:	b2db      	uxtb	r3, r3
 8003186:	2b00      	cmp	r3, #0
 8003188:	d00b      	beq.n	80031a2 <vPortEnterCritical+0x4e>
    __asm volatile
 800318a:	f04f 0350 	mov.w	r3, #80	@ 0x50
 800318e:	f383 8811 	msr	BASEPRI, r3
 8003192:	f3bf 8f6f 	isb	sy
 8003196:	f3bf 8f4f 	dsb	sy
 800319a:	603b      	str	r3, [r7, #0]
}
 800319c:	bf00      	nop
 800319e:	bf00      	nop
 80031a0:	e7fd      	b.n	800319e <vPortEnterCritical+0x4a>
    }
}
 80031a2:	bf00      	nop
 80031a4:	370c      	adds	r7, #12
 80031a6:	46bd      	mov	sp, r7
 80031a8:	f85d 7b04 	ldr.w	r7, [sp], #4
 80031ac:	4770      	bx	lr
 80031ae:	bf00      	nop
 80031b0:	20000004 	.word	0x20000004
 80031b4:	e000ed04 	.word	0xe000ed04

080031b8 <vPortExitCritical>:
/*-----------------------------------------------------------*/

void vPortExitCritical( void )
{
 80031b8:	b480      	push	{r7}
 80031ba:	b083      	sub	sp, #12
 80031bc:	af00      	add	r7, sp, #0
    configASSERT( uxCriticalNesting );
 80031be:	4b12      	ldr	r3, [pc, #72]	@ (8003208 <vPortExitCritical+0x50>)
 80031c0:	681b      	ldr	r3, [r3, #0]
 80031c2:	2b00      	cmp	r3, #0
 80031c4:	d10b      	bne.n	80031de <vPortExitCritical+0x26>
    __asm volatile
 80031c6:	f04f 0350 	mov.w	r3, #80	@ 0x50
 80031ca:	f383 8811 	msr	BASEPRI, r3
 80031ce:	f3bf 8f6f 	isb	sy
 80031d2:	f3bf 8f4f 	dsb	sy
 80031d6:	607b      	str	r3, [r7, #4]
}
 80031d8:	bf00      	nop
 80031da:	bf00      	nop
 80031dc:	e7fd      	b.n	80031da <vPortExitCritical+0x22>
    uxCriticalNesting--;
 80031de:	4b0a      	ldr	r3, [pc, #40]	@ (8003208 <vPortExitCritical+0x50>)
 80031e0:	681b      	ldr	r3, [r3, #0]
 80031e2:	3b01      	subs	r3, #1
 80031e4:	4a08      	ldr	r2, [pc, #32]	@ (8003208 <vPortExitCritical+0x50>)
 80031e6:	6013      	str	r3, [r2, #0]

    if( uxCriticalNesting == 0 )
 80031e8:	4b07      	ldr	r3, [pc, #28]	@ (8003208 <vPortExitCritical+0x50>)
 80031ea:	681b      	ldr	r3, [r3, #0]
 80031ec:	2b00      	cmp	r3, #0
 80031ee:	d105      	bne.n	80031fc <vPortExitCritical+0x44>
 80031f0:	2300      	movs	r3, #0
 80031f2:	603b      	str	r3, [r7, #0]
}
/*-----------------------------------------------------------*/

portFORCE_INLINE static void vPortSetBASEPRI( uint32_t ulNewMaskValue )
{
    __asm volatile
 80031f4:	683b      	ldr	r3, [r7, #0]
 80031f6:	f383 8811 	msr	BASEPRI, r3
    (
        "   msr basepri, %0 " ::"r" ( ulNewMaskValue ) : "memory"
    );
}
 80031fa:	bf00      	nop
    {
        portENABLE_INTERRUPTS();
    }
}
 80031fc:	bf00      	nop
 80031fe:	370c      	adds	r7, #12
 8003200:	46bd      	mov	sp, r7
 8003202:	f85d 7b04 	ldr.w	r7, [sp], #4
 8003206:	4770      	bx	lr
 8003208:	20000004 	.word	0x20000004
 800320c:	00000000 	.word	0x00000000

08003210 <xPortPendSVHandler>:

void xPortPendSVHandler( void )
{
    /* This is a naked function. */

    __asm volatile
 8003210:	f3ef 8009 	mrs	r0, PSP
 8003214:	f3bf 8f6f 	isb	sy
 8003218:	4b15      	ldr	r3, [pc, #84]	@ (8003270 <pxCurrentTCBConst>)
 800321a:	681a      	ldr	r2, [r3, #0]
 800321c:	f01e 0f10 	tst.w	lr, #16
 8003220:	bf08      	it	eq
 8003222:	ed20 8a10 	vstmdbeq	r0!, {s16-s31}
 8003226:	e920 4ff0 	stmdb	r0!, {r4, r5, r6, r7, r8, r9, sl, fp, lr}
 800322a:	6010      	str	r0, [r2, #0]
 800322c:	e92d 0009 	stmdb	sp!, {r0, r3}
 8003230:	f04f 0050 	mov.w	r0, #80	@ 0x50
 8003234:	f380 8811 	msr	BASEPRI, r0
 8003238:	f3bf 8f4f 	dsb	sy
 800323c:	f3bf 8f6f 	isb	sy
 8003240:	f7ff fcf4 	bl	8002c2c <vTaskSwitchContext>
 8003244:	f04f 0000 	mov.w	r0, #0
 8003248:	f380 8811 	msr	BASEPRI, r0
 800324c:	bc09      	pop	{r0, r3}
 800324e:	6819      	ldr	r1, [r3, #0]
 8003250:	6808      	ldr	r0, [r1, #0]
 8003252:	e8b0 4ff0 	ldmia.w	r0!, {r4, r5, r6, r7, r8, r9, sl, fp, lr}
 8003256:	f01e 0f10 	tst.w	lr, #16
 800325a:	bf08      	it	eq
 800325c:	ecb0 8a10 	vldmiaeq	r0!, {s16-s31}
 8003260:	f380 8809 	msr	PSP, r0
 8003264:	f3bf 8f6f 	isb	sy
 8003268:	4770      	bx	lr
 800326a:	bf00      	nop
 800326c:	f3af 8000 	nop.w

08003270 <pxCurrentTCBConst>:
 8003270:	20001704 	.word	0x20001704
        "                                       \n"
        "   .align 4                            \n"
        "pxCurrentTCBConst: .word pxCurrentTCB  \n"
        ::"i" ( configMAX_SYSCALL_INTERRUPT_PRIORITY )
    );
}
 8003274:	bf00      	nop
 8003276:	bf00      	nop

08003278 <xPortSysTickHandler>:
/*-----------------------------------------------------------*/

void xPortSysTickHandler( void )
{
 8003278:	b580      	push	{r7, lr}
 800327a:	b082      	sub	sp, #8
 800327c:	af00      	add	r7, sp, #0
    __asm volatile
 800327e:	f04f 0350 	mov.w	r3, #80	@ 0x50
 8003282:	f383 8811 	msr	BASEPRI, r3
 8003286:	f3bf 8f6f 	isb	sy
 800328a:	f3bf 8f4f 	dsb	sy
 800328e:	607b      	str	r3, [r7, #4]
}
 8003290:	bf00      	nop
    /* The SysTick runs at the lowest interrupt priority, so when this interrupt
     * executes all interrupts must be unmasked.  There is therefore no need to
     * save and then restore the interrupt mask value as its value is already
     * known. */
    portDISABLE_INTERRUPTS();
    traceISR_ENTER();
 8003292:	f7fe fc77 	bl	8001b84 <SEGGER_SYSVIEW_RecordEnterISR>
    {
        /* Increment the RTOS tick. */
        if( xTaskIncrementTick() != pdFALSE )
 8003296:	f7ff fbc7 	bl	8002a28 <xTaskIncrementTick>
 800329a:	4603      	mov	r3, r0
 800329c:	2b00      	cmp	r3, #0
 800329e:	d006      	beq.n	80032ae <xPortSysTickHandler+0x36>
        {
            traceISR_EXIT_TO_SCHEDULER();
 80032a0:	f7fe fcce 	bl	8001c40 <SEGGER_SYSVIEW_RecordExitISRToScheduler>

            /* A context switch is required.  Context switching is performed in
             * the PendSV interrupt.  Pend the PendSV interrupt. */
            portNVIC_INT_CTRL_REG = portNVIC_PENDSVSET_BIT;
 80032a4:	4b08      	ldr	r3, [pc, #32]	@ (80032c8 <xPortSysTickHandler+0x50>)
 80032a6:	f04f 5280 	mov.w	r2, #268435456	@ 0x10000000
 80032aa:	601a      	str	r2, [r3, #0]
 80032ac:	e001      	b.n	80032b2 <xPortSysTickHandler+0x3a>
        }
        else
        {
            traceISR_EXIT();
 80032ae:	f7fe fcab 	bl	8001c08 <SEGGER_SYSVIEW_RecordExitISR>
 80032b2:	2300      	movs	r3, #0
 80032b4:	603b      	str	r3, [r7, #0]
    __asm volatile
 80032b6:	683b      	ldr	r3, [r7, #0]
 80032b8:	f383 8811 	msr	BASEPRI, r3
}
 80032bc:	bf00      	nop
        }
    }
    portENABLE_INTERRUPTS();
}
 80032be:	bf00      	nop
 80032c0:	3708      	adds	r7, #8
 80032c2:	46bd      	mov	sp, r7
 80032c4:	bd80      	pop	{r7, pc}
 80032c6:	bf00      	nop
 80032c8:	e000ed04 	.word	0xe000ed04

080032cc <vPortSetupTimerInterrupt>:
/*
 * Setup the systick timer to generate the tick interrupts at the required
 * frequency.
 */
__attribute__( ( weak ) ) void vPortSetupTimerInterrupt( void )
{
 80032cc:	b480      	push	{r7}
 80032ce:	af00      	add	r7, sp, #0
        ulStoppedTimerCompensation = portMISSED_COUNTS_FACTOR / ( configCPU_CLOCK_HZ / configSYSTICK_CLOCK_HZ );
    }
    #endif /* configUSE_TICKLESS_IDLE */

    /* Stop and clear the SysTick. */
    portNVIC_SYSTICK_CTRL_REG = 0UL;
 80032d0:	4b0b      	ldr	r3, [pc, #44]	@ (8003300 <vPortSetupTimerInterrupt+0x34>)
 80032d2:	2200      	movs	r2, #0
 80032d4:	601a      	str	r2, [r3, #0]
    portNVIC_SYSTICK_CURRENT_VALUE_REG = 0UL;
 80032d6:	4b0b      	ldr	r3, [pc, #44]	@ (8003304 <vPortSetupTimerInterrupt+0x38>)
 80032d8:	2200      	movs	r2, #0
 80032da:	601a      	str	r2, [r3, #0]

    /* Configure SysTick to interrupt at the requested rate. */
    portNVIC_SYSTICK_LOAD_REG = ( configSYSTICK_CLOCK_HZ / configTICK_RATE_HZ ) - 1UL;
 80032dc:	4b0a      	ldr	r3, [pc, #40]	@ (8003308 <vPortSetupTimerInterrupt+0x3c>)
 80032de:	681b      	ldr	r3, [r3, #0]
 80032e0:	4a0a      	ldr	r2, [pc, #40]	@ (800330c <vPortSetupTimerInterrupt+0x40>)
 80032e2:	fba2 2303 	umull	r2, r3, r2, r3
 80032e6:	099b      	lsrs	r3, r3, #6
 80032e8:	4a09      	ldr	r2, [pc, #36]	@ (8003310 <vPortSetupTimerInterrupt+0x44>)
 80032ea:	3b01      	subs	r3, #1
 80032ec:	6013      	str	r3, [r2, #0]
    portNVIC_SYSTICK_CTRL_REG = ( portNVIC_SYSTICK_CLK_BIT_CONFIG | portNVIC_SYSTICK_INT_BIT | portNVIC_SYSTICK_ENABLE_BIT );
 80032ee:	4b04      	ldr	r3, [pc, #16]	@ (8003300 <vPortSetupTimerInterrupt+0x34>)
 80032f0:	2207      	movs	r2, #7
 80032f2:	601a      	str	r2, [r3, #0]
}
 80032f4:	bf00      	nop
 80032f6:	46bd      	mov	sp, r7
 80032f8:	f85d 7b04 	ldr.w	r7, [sp], #4
 80032fc:	4770      	bx	lr
 80032fe:	bf00      	nop
 8003300:	e000e010 	.word	0xe000e010
 8003304:	e000e018 	.word	0xe000e018
 8003308:	20000000 	.word	0x20000000
 800330c:	10624dd3 	.word	0x10624dd3
 8003310:	e000e014 	.word	0xe000e014

08003314 <vPortEnableVFP>:
/*-----------------------------------------------------------*/

/* This is a naked function. */
static void vPortEnableVFP( void )
{
    __asm volatile
 8003314:	f8df 000c 	ldr.w	r0, [pc, #12]	@ 8003324 <vPortEnableVFP+0x10>
 8003318:	6801      	ldr	r1, [r0, #0]
 800331a:	f441 0170 	orr.w	r1, r1, #15728640	@ 0xf00000
 800331e:	6001      	str	r1, [r0, #0]
 8003320:	4770      	bx	lr
 8003322:	0000      	.short	0x0000
 8003324:	e000ed88 	.word	0xe000ed88
        "   orr r1, r1, #( 0xf << 20 )  \n" /* Enable CP10 and CP11 coprocessors, then save back. */
        "   str r1, [r0]                \n"
        "   bx r14                      \n"
        "   .ltorg                      \n"
    );
}
 8003328:	bf00      	nop
 800332a:	bf00      	nop

0800332c <vPortValidateInterruptPriority>:
/*-----------------------------------------------------------*/

#if ( configASSERT_DEFINED == 1 )

    void vPortValidateInterruptPriority( void )
    {
 800332c:	b480      	push	{r7}
 800332e:	b085      	sub	sp, #20
 8003330:	af00      	add	r7, sp, #0
        uint32_t ulCurrentInterrupt;
        uint8_t ucCurrentPriority;

        /* Obtain the number of the currently executing interrupt. */
        __asm volatile ( "mrs %0, ipsr" : "=r" ( ulCurrentInterrupt )::"memory" );
 8003332:	f3ef 8305 	mrs	r3, IPSR
 8003336:	60fb      	str	r3, [r7, #12]

        /* Is the interrupt number a user defined interrupt? */
        if( ulCurrentInterrupt >= portFIRST_USER_INTERRUPT_NUMBER )
 8003338:	68fb      	ldr	r3, [r7, #12]
 800333a:	2b0f      	cmp	r3, #15
 800333c:	d915      	bls.n	800336a <vPortValidateInterruptPriority+0x3e>
        {
            /* Look up the interrupt's priority. */
            ucCurrentPriority = pcInterruptPriorityRegisters[ ulCurrentInterrupt ];
 800333e:	4a18      	ldr	r2, [pc, #96]	@ (80033a0 <vPortValidateInterruptPriority+0x74>)
 8003340:	68fb      	ldr	r3, [r7, #12]
 8003342:	4413      	add	r3, r2
 8003344:	781b      	ldrb	r3, [r3, #0]
 8003346:	72fb      	strb	r3, [r7, #11]
             * interrupt entry is as fast and simple as possible.
             *
             * The following links provide detailed information:
             * https://www.FreeRTOS.org/RTOS-Cortex-M3-M4.html
             * https://www.FreeRTOS.org/FAQHelp.html */
            configASSERT( ucCurrentPriority >= ucMaxSysCallPriority );
 8003348:	4b16      	ldr	r3, [pc, #88]	@ (80033a4 <vPortValidateInterruptPriority+0x78>)
 800334a:	781b      	ldrb	r3, [r3, #0]
 800334c:	7afa      	ldrb	r2, [r7, #11]
 800334e:	429a      	cmp	r2, r3
 8003350:	d20b      	bcs.n	800336a <vPortValidateInterruptPriority+0x3e>
    __asm volatile
 8003352:	f04f 0350 	mov.w	r3, #80	@ 0x50
 8003356:	f383 8811 	msr	BASEPRI, r3
 800335a:	f3bf 8f6f 	isb	sy
 800335e:	f3bf 8f4f 	dsb	sy
 8003362:	607b      	str	r3, [r7, #4]
}
 8003364:	bf00      	nop
 8003366:	bf00      	nop
 8003368:	e7fd      	b.n	8003366 <vPortValidateInterruptPriority+0x3a>
         * configuration then the correct setting can be achieved on all Cortex-M
         * devices by calling NVIC_SetPriorityGrouping( 0 ); before starting the
         * scheduler.  Note however that some vendor specific peripheral libraries
         * assume a non-zero priority group setting, in which cases using a value
         * of zero will result in unpredictable behaviour. */
        configASSERT( ( portAIRCR_REG & portPRIORITY_GROUP_MASK ) <= ulMaxPRIGROUPValue );
 800336a:	4b0f      	ldr	r3, [pc, #60]	@ (80033a8 <vPortValidateInterruptPriority+0x7c>)
 800336c:	681b      	ldr	r3, [r3, #0]
 800336e:	f403 62e0 	and.w	r2, r3, #1792	@ 0x700
 8003372:	4b0e      	ldr	r3, [pc, #56]	@ (80033ac <vPortValidateInterruptPriority+0x80>)
 8003374:	681b      	ldr	r3, [r3, #0]
 8003376:	429a      	cmp	r2, r3
 8003378:	d90b      	bls.n	8003392 <vPortValidateInterruptPriority+0x66>
    __asm volatile
 800337a:	f04f 0350 	mov.w	r3, #80	@ 0x50
 800337e:	f383 8811 	msr	BASEPRI, r3
 8003382:	f3bf 8f6f 	isb	sy
 8003386:	f3bf 8f4f 	dsb	sy
 800338a:	603b      	str	r3, [r7, #0]
}
 800338c:	bf00      	nop
 800338e:	bf00      	nop
 8003390:	e7fd      	b.n	800338e <vPortValidateInterruptPriority+0x62>
    }
 8003392:	bf00      	nop
 8003394:	3714      	adds	r7, #20
 8003396:	46bd      	mov	sp, r7
 8003398:	f85d 7b04 	ldr.w	r7, [sp], #4
 800339c:	4770      	bx	lr
 800339e:	bf00      	nop
 80033a0:	e000e3f0 	.word	0xe000e3f0
 80033a4:	20001830 	.word	0x20001830
 80033a8:	e000ed0c 	.word	0xe000ed0c
 80033ac:	20001834 	.word	0x20001834

080033b0 <pvPortMalloc>:
PRIVILEGED_DATA static size_t xNumberOfSuccessfulFrees = ( size_t ) 0U;

/*-----------------------------------------------------------*/

void * pvPortMalloc( size_t xWantedSize )
{
 80033b0:	b580      	push	{r7, lr}
 80033b2:	b08e      	sub	sp, #56	@ 0x38
 80033b4:	af00      	add	r7, sp, #0
 80033b6:	6078      	str	r0, [r7, #4]
    BlockLink_t * pxBlock;
    BlockLink_t * pxPreviousBlock;
    BlockLink_t * pxNewBlockLink;
    void * pvReturn = NULL;
 80033b8:	2300      	movs	r3, #0
 80033ba:	62fb      	str	r3, [r7, #44]	@ 0x2c
    size_t xAdditionalRequiredSize;

    if( xWantedSize > 0 )
 80033bc:	687b      	ldr	r3, [r7, #4]
 80033be:	2b00      	cmp	r3, #0
 80033c0:	d022      	beq.n	8003408 <pvPortMalloc+0x58>
    {
        /* The wanted size must be increased so it can contain a BlockLink_t
         * structure in addition to the requested amount of bytes. */
        if( heapADD_WILL_OVERFLOW( xWantedSize, xHeapStructSize ) == 0 )
 80033c2:	2308      	movs	r3, #8
 80033c4:	43db      	mvns	r3, r3
 80033c6:	687a      	ldr	r2, [r7, #4]
 80033c8:	429a      	cmp	r2, r3
 80033ca:	d81b      	bhi.n	8003404 <pvPortMalloc+0x54>
        {
            xWantedSize += xHeapStructSize;
 80033cc:	2208      	movs	r2, #8
 80033ce:	687b      	ldr	r3, [r7, #4]
 80033d0:	4413      	add	r3, r2
 80033d2:	607b      	str	r3, [r7, #4]

            /* Ensure that blocks are always aligned to the required number
             * of bytes. */
            if( ( xWantedSize & portBYTE_ALIGNMENT_MASK ) != 0x00 )
 80033d4:	687b      	ldr	r3, [r7, #4]
 80033d6:	f003 0307 	and.w	r3, r3, #7
 80033da:	2b00      	cmp	r3, #0
 80033dc:	d014      	beq.n	8003408 <pvPortMalloc+0x58>
            {
                /* Byte alignment required. */
                xAdditionalRequiredSize = portBYTE_ALIGNMENT - ( xWantedSize & portBYTE_ALIGNMENT_MASK );
 80033de:	687b      	ldr	r3, [r7, #4]
 80033e0:	f003 0307 	and.w	r3, r3, #7
 80033e4:	f1c3 0308 	rsb	r3, r3, #8
 80033e8:	62bb      	str	r3, [r7, #40]	@ 0x28

                if( heapADD_WILL_OVERFLOW( xWantedSize, xAdditionalRequiredSize ) == 0 )
 80033ea:	6abb      	ldr	r3, [r7, #40]	@ 0x28
 80033ec:	43db      	mvns	r3, r3
 80033ee:	687a      	ldr	r2, [r7, #4]
 80033f0:	429a      	cmp	r2, r3
 80033f2:	d804      	bhi.n	80033fe <pvPortMalloc+0x4e>
                {
                    xWantedSize += xAdditionalRequiredSize;
 80033f4:	687a      	ldr	r2, [r7, #4]
 80033f6:	6abb      	ldr	r3, [r7, #40]	@ 0x28
 80033f8:	4413      	add	r3, r2
 80033fa:	607b      	str	r3, [r7, #4]
 80033fc:	e004      	b.n	8003408 <pvPortMalloc+0x58>
                }
                else
                {
                    xWantedSize = 0;
 80033fe:	2300      	movs	r3, #0
 8003400:	607b      	str	r3, [r7, #4]
 8003402:	e001      	b.n	8003408 <pvPortMalloc+0x58>
                mtCOVERAGE_TEST_MARKER();
            }
        }
        else
        {
            xWantedSize = 0;
 8003404:	2300      	movs	r3, #0
 8003406:	607b      	str	r3, [r7, #4]
    else
    {
        mtCOVERAGE_TEST_MARKER();
    }

    vTaskSuspendAll();
 8003408:	f7ff f9e0 	bl	80027cc <vTaskSuspendAll>
    {
        /* If this is the first call to malloc then the heap will require
         * initialisation to setup the list of free blocks. */
        if( pxEnd == NULL )
 800340c:	4b7a      	ldr	r3, [pc, #488]	@ (80035f8 <pvPortMalloc+0x248>)
 800340e:	681b      	ldr	r3, [r3, #0]
 8003410:	2b00      	cmp	r3, #0
 8003412:	d101      	bne.n	8003418 <pvPortMalloc+0x68>
        {
            prvHeapInit();
 8003414:	f000 f974 	bl	8003700 <prvHeapInit>

        /* Check the block size we are trying to allocate is not so large that the
         * top bit is set.  The top bit of the block size member of the BlockLink_t
         * structure is used to determine who owns the block - the application or
         * the kernel, so it must be free. */
        if( heapBLOCK_SIZE_IS_VALID( xWantedSize ) != 0 )
 8003418:	687b      	ldr	r3, [r7, #4]
 800341a:	2b00      	cmp	r3, #0
 800341c:	f2c0 80d3 	blt.w	80035c6 <pvPortMalloc+0x216>
        {
            if( ( xWantedSize > 0 ) && ( xWantedSize <= xFreeBytesRemaining ) )
 8003420:	687b      	ldr	r3, [r7, #4]
 8003422:	2b00      	cmp	r3, #0
 8003424:	f000 80cf 	beq.w	80035c6 <pvPortMalloc+0x216>
 8003428:	4b74      	ldr	r3, [pc, #464]	@ (80035fc <pvPortMalloc+0x24c>)
 800342a:	681b      	ldr	r3, [r3, #0]
 800342c:	687a      	ldr	r2, [r7, #4]
 800342e:	429a      	cmp	r2, r3
 8003430:	f200 80c9 	bhi.w	80035c6 <pvPortMalloc+0x216>
            {
                /* Traverse the list from the start (lowest address) block until
                 * one of adequate size is found. */
                pxPreviousBlock = &xStart;
 8003434:	4b72      	ldr	r3, [pc, #456]	@ (8003600 <pvPortMalloc+0x250>)
 8003436:	633b      	str	r3, [r7, #48]	@ 0x30
                pxBlock = heapPROTECT_BLOCK_POINTER( xStart.pxNextFreeBlock );
 8003438:	4b71      	ldr	r3, [pc, #452]	@ (8003600 <pvPortMalloc+0x250>)
 800343a:	681b      	ldr	r3, [r3, #0]
 800343c:	637b      	str	r3, [r7, #52]	@ 0x34
                heapVALIDATE_BLOCK_POINTER( pxBlock );
 800343e:	6b7b      	ldr	r3, [r7, #52]	@ 0x34
 8003440:	4a70      	ldr	r2, [pc, #448]	@ (8003604 <pvPortMalloc+0x254>)
 8003442:	4293      	cmp	r3, r2
 8003444:	d305      	bcc.n	8003452 <pvPortMalloc+0xa2>
 8003446:	6b7b      	ldr	r3, [r7, #52]	@ 0x34
 8003448:	4a6f      	ldr	r2, [pc, #444]	@ (8003608 <pvPortMalloc+0x258>)
 800344a:	4293      	cmp	r3, r2
 800344c:	d801      	bhi.n	8003452 <pvPortMalloc+0xa2>
 800344e:	2301      	movs	r3, #1
 8003450:	e000      	b.n	8003454 <pvPortMalloc+0xa4>
 8003452:	2300      	movs	r3, #0
 8003454:	2b00      	cmp	r3, #0
 8003456:	d129      	bne.n	80034ac <pvPortMalloc+0xfc>
    __asm volatile
 8003458:	f04f 0350 	mov.w	r3, #80	@ 0x50
 800345c:	f383 8811 	msr	BASEPRI, r3
 8003460:	f3bf 8f6f 	isb	sy
 8003464:	f3bf 8f4f 	dsb	sy
 8003468:	623b      	str	r3, [r7, #32]
}
 800346a:	bf00      	nop
 800346c:	bf00      	nop
 800346e:	e7fd      	b.n	800346c <pvPortMalloc+0xbc>

                while( ( pxBlock->xBlockSize < xWantedSize ) && ( pxBlock->pxNextFreeBlock != heapPROTECT_BLOCK_POINTER( NULL ) ) )
                {
                    pxPreviousBlock = pxBlock;
 8003470:	6b7b      	ldr	r3, [r7, #52]	@ 0x34
 8003472:	633b      	str	r3, [r7, #48]	@ 0x30
                    pxBlock = heapPROTECT_BLOCK_POINTER( pxBlock->pxNextFreeBlock );
 8003474:	6b7b      	ldr	r3, [r7, #52]	@ 0x34
 8003476:	681b      	ldr	r3, [r3, #0]
 8003478:	637b      	str	r3, [r7, #52]	@ 0x34
                    heapVALIDATE_BLOCK_POINTER( pxBlock );
 800347a:	6b7b      	ldr	r3, [r7, #52]	@ 0x34
 800347c:	4a61      	ldr	r2, [pc, #388]	@ (8003604 <pvPortMalloc+0x254>)
 800347e:	4293      	cmp	r3, r2
 8003480:	d305      	bcc.n	800348e <pvPortMalloc+0xde>
 8003482:	6b7b      	ldr	r3, [r7, #52]	@ 0x34
 8003484:	4a60      	ldr	r2, [pc, #384]	@ (8003608 <pvPortMalloc+0x258>)
 8003486:	4293      	cmp	r3, r2
 8003488:	d801      	bhi.n	800348e <pvPortMalloc+0xde>
 800348a:	2301      	movs	r3, #1
 800348c:	e000      	b.n	8003490 <pvPortMalloc+0xe0>
 800348e:	2300      	movs	r3, #0
 8003490:	2b00      	cmp	r3, #0
 8003492:	d10b      	bne.n	80034ac <pvPortMalloc+0xfc>
    __asm volatile
 8003494:	f04f 0350 	mov.w	r3, #80	@ 0x50
 8003498:	f383 8811 	msr	BASEPRI, r3
 800349c:	f3bf 8f6f 	isb	sy
 80034a0:	f3bf 8f4f 	dsb	sy
 80034a4:	61fb      	str	r3, [r7, #28]
}
 80034a6:	bf00      	nop
 80034a8:	bf00      	nop
 80034aa:	e7fd      	b.n	80034a8 <pvPortMalloc+0xf8>
                while( ( pxBlock->xBlockSize < xWantedSize ) && ( pxBlock->pxNextFreeBlock != heapPROTECT_BLOCK_POINTER( NULL ) ) )
 80034ac:	6b7b      	ldr	r3, [r7, #52]	@ 0x34
 80034ae:	685b      	ldr	r3, [r3, #4]
 80034b0:	687a      	ldr	r2, [r7, #4]
 80034b2:	429a      	cmp	r2, r3
 80034b4:	d903      	bls.n	80034be <pvPortMalloc+0x10e>
 80034b6:	6b7b      	ldr	r3, [r7, #52]	@ 0x34
 80034b8:	681b      	ldr	r3, [r3, #0]
 80034ba:	2b00      	cmp	r3, #0
 80034bc:	d1d8      	bne.n	8003470 <pvPortMalloc+0xc0>
                }

                /* If the end marker was reached then a block of adequate size
                 * was not found. */
                if( pxBlock != pxEnd )
 80034be:	4b4e      	ldr	r3, [pc, #312]	@ (80035f8 <pvPortMalloc+0x248>)
 80034c0:	681b      	ldr	r3, [r3, #0]
 80034c2:	6b7a      	ldr	r2, [r7, #52]	@ 0x34
 80034c4:	429a      	cmp	r2, r3
 80034c6:	d07e      	beq.n	80035c6 <pvPortMalloc+0x216>
                {
                    /* Return the memory space pointed to - jumping over the
                     * BlockLink_t structure at its start. */
                    pvReturn = ( void * ) ( ( ( uint8_t * ) heapPROTECT_BLOCK_POINTER( pxPreviousBlock->pxNextFreeBlock ) ) + xHeapStructSize );
 80034c8:	6b3b      	ldr	r3, [r7, #48]	@ 0x30
 80034ca:	681b      	ldr	r3, [r3, #0]
 80034cc:	2208      	movs	r2, #8
 80034ce:	4413      	add	r3, r2
 80034d0:	62fb      	str	r3, [r7, #44]	@ 0x2c
                    heapVALIDATE_BLOCK_POINTER( pvReturn );
 80034d2:	6afb      	ldr	r3, [r7, #44]	@ 0x2c
 80034d4:	4a4b      	ldr	r2, [pc, #300]	@ (8003604 <pvPortMalloc+0x254>)
 80034d6:	4293      	cmp	r3, r2
 80034d8:	d305      	bcc.n	80034e6 <pvPortMalloc+0x136>
 80034da:	6afb      	ldr	r3, [r7, #44]	@ 0x2c
 80034dc:	4a4a      	ldr	r2, [pc, #296]	@ (8003608 <pvPortMalloc+0x258>)
 80034de:	4293      	cmp	r3, r2
 80034e0:	d801      	bhi.n	80034e6 <pvPortMalloc+0x136>
 80034e2:	2301      	movs	r3, #1
 80034e4:	e000      	b.n	80034e8 <pvPortMalloc+0x138>
 80034e6:	2300      	movs	r3, #0
 80034e8:	2b00      	cmp	r3, #0
 80034ea:	d10b      	bne.n	8003504 <pvPortMalloc+0x154>
    __asm volatile
 80034ec:	f04f 0350 	mov.w	r3, #80	@ 0x50
 80034f0:	f383 8811 	msr	BASEPRI, r3
 80034f4:	f3bf 8f6f 	isb	sy
 80034f8:	f3bf 8f4f 	dsb	sy
 80034fc:	61bb      	str	r3, [r7, #24]
}
 80034fe:	bf00      	nop
 8003500:	bf00      	nop
 8003502:	e7fd      	b.n	8003500 <pvPortMalloc+0x150>

                    /* This block is being returned for use so must be taken out
                     * of the list of free blocks. */
                    pxPreviousBlock->pxNextFreeBlock = pxBlock->pxNextFreeBlock;
 8003504:	6b7b      	ldr	r3, [r7, #52]	@ 0x34
 8003506:	681a      	ldr	r2, [r3, #0]
 8003508:	6b3b      	ldr	r3, [r7, #48]	@ 0x30
 800350a:	601a      	str	r2, [r3, #0]

                    /* If the block is larger than required it can be split into
                     * two. */
                    configASSERT( heapSUBTRACT_WILL_UNDERFLOW( pxBlock->xBlockSize, xWantedSize ) == 0 );
 800350c:	6b7b      	ldr	r3, [r7, #52]	@ 0x34
 800350e:	685b      	ldr	r3, [r3, #4]
 8003510:	687a      	ldr	r2, [r7, #4]
 8003512:	429a      	cmp	r2, r3
 8003514:	d90b      	bls.n	800352e <pvPortMalloc+0x17e>
    __asm volatile
 8003516:	f04f 0350 	mov.w	r3, #80	@ 0x50
 800351a:	f383 8811 	msr	BASEPRI, r3
 800351e:	f3bf 8f6f 	isb	sy
 8003522:	f3bf 8f4f 	dsb	sy
 8003526:	617b      	str	r3, [r7, #20]
}
 8003528:	bf00      	nop
 800352a:	bf00      	nop
 800352c:	e7fd      	b.n	800352a <pvPortMalloc+0x17a>

                    if( ( pxBlock->xBlockSize - xWantedSize ) > heapMINIMUM_BLOCK_SIZE )
 800352e:	6b7b      	ldr	r3, [r7, #52]	@ 0x34
 8003530:	685a      	ldr	r2, [r3, #4]
 8003532:	687b      	ldr	r3, [r7, #4]
 8003534:	1ad2      	subs	r2, r2, r3
 8003536:	2308      	movs	r3, #8
 8003538:	005b      	lsls	r3, r3, #1
 800353a:	429a      	cmp	r2, r3
 800353c:	d924      	bls.n	8003588 <pvPortMalloc+0x1d8>
                    {
                        /* This block is to be split into two.  Create a new
                         * block following the number of bytes requested. The void
                         * cast is used to prevent byte alignment warnings from the
                         * compiler. */
                        pxNewBlockLink = ( void * ) ( ( ( uint8_t * ) pxBlock ) + xWantedSize );
 800353e:	6b7a      	ldr	r2, [r7, #52]	@ 0x34
 8003540:	687b      	ldr	r3, [r7, #4]
 8003542:	4413      	add	r3, r2
 8003544:	627b      	str	r3, [r7, #36]	@ 0x24
                        configASSERT( ( ( ( size_t ) pxNewBlockLink ) & portBYTE_ALIGNMENT_MASK ) == 0 );
 8003546:	6a7b      	ldr	r3, [r7, #36]	@ 0x24
 8003548:	f003 0307 	and.w	r3, r3, #7
 800354c:	2b00      	cmp	r3, #0
 800354e:	d00b      	beq.n	8003568 <pvPortMalloc+0x1b8>
    __asm volatile
 8003550:	f04f 0350 	mov.w	r3, #80	@ 0x50
 8003554:	f383 8811 	msr	BASEPRI, r3
 8003558:	f3bf 8f6f 	isb	sy
 800355c:	f3bf 8f4f 	dsb	sy
 8003560:	613b      	str	r3, [r7, #16]
}
 8003562:	bf00      	nop
 8003564:	bf00      	nop
 8003566:	e7fd      	b.n	8003564 <pvPortMalloc+0x1b4>

                        /* Calculate the sizes of two blocks split from the
                         * single block. */
                        pxNewBlockLink->xBlockSize = pxBlock->xBlockSize - xWantedSize;
 8003568:	6b7b      	ldr	r3, [r7, #52]	@ 0x34
 800356a:	685a      	ldr	r2, [r3, #4]
 800356c:	687b      	ldr	r3, [r7, #4]
 800356e:	1ad2      	subs	r2, r2, r3
 8003570:	6a7b      	ldr	r3, [r7, #36]	@ 0x24
 8003572:	605a      	str	r2, [r3, #4]
                        pxBlock->xBlockSize = xWantedSize;
 8003574:	6b7b      	ldr	r3, [r7, #52]	@ 0x34
 8003576:	687a      	ldr	r2, [r7, #4]
 8003578:	605a      	str	r2, [r3, #4]

                        /* Insert the new block into the list of free blocks. */
                        pxNewBlockLink->pxNextFreeBlock = pxPreviousBlock->pxNextFreeBlock;
 800357a:	6b3b      	ldr	r3, [r7, #48]	@ 0x30
 800357c:	681a      	ldr	r2, [r3, #0]
 800357e:	6a7b      	ldr	r3, [r7, #36]	@ 0x24
 8003580:	601a      	str	r2, [r3, #0]
                        pxPreviousBlock->pxNextFreeBlock = heapPROTECT_BLOCK_POINTER( pxNewBlockLink );
 8003582:	6b3b      	ldr	r3, [r7, #48]	@ 0x30
 8003584:	6a7a      	ldr	r2, [r7, #36]	@ 0x24
 8003586:	601a      	str	r2, [r3, #0]
                    else
                    {
                        mtCOVERAGE_TEST_MARKER();
                    }

                    xFreeBytesRemaining -= pxBlock->xBlockSize;
 8003588:	4b1c      	ldr	r3, [pc, #112]	@ (80035fc <pvPortMalloc+0x24c>)
 800358a:	681a      	ldr	r2, [r3, #0]
 800358c:	6b7b      	ldr	r3, [r7, #52]	@ 0x34
 800358e:	685b      	ldr	r3, [r3, #4]
 8003590:	1ad3      	subs	r3, r2, r3
 8003592:	4a1a      	ldr	r2, [pc, #104]	@ (80035fc <pvPortMalloc+0x24c>)
 8003594:	6013      	str	r3, [r2, #0]

                    if( xFreeBytesRemaining < xMinimumEverFreeBytesRemaining )
 8003596:	4b19      	ldr	r3, [pc, #100]	@ (80035fc <pvPortMalloc+0x24c>)
 8003598:	681a      	ldr	r2, [r3, #0]
 800359a:	4b1c      	ldr	r3, [pc, #112]	@ (800360c <pvPortMalloc+0x25c>)
 800359c:	681b      	ldr	r3, [r3, #0]
 800359e:	429a      	cmp	r2, r3
 80035a0:	d203      	bcs.n	80035aa <pvPortMalloc+0x1fa>
                    {
                        xMinimumEverFreeBytesRemaining = xFreeBytesRemaining;
 80035a2:	4b16      	ldr	r3, [pc, #88]	@ (80035fc <pvPortMalloc+0x24c>)
 80035a4:	681b      	ldr	r3, [r3, #0]
 80035a6:	4a19      	ldr	r2, [pc, #100]	@ (800360c <pvPortMalloc+0x25c>)
 80035a8:	6013      	str	r3, [r2, #0]
                        mtCOVERAGE_TEST_MARKER();
                    }

                    /* The block is being returned - it is allocated and owned
                     * by the application and has no "next" block. */
                    heapALLOCATE_BLOCK( pxBlock );
 80035aa:	6b7b      	ldr	r3, [r7, #52]	@ 0x34
 80035ac:	685b      	ldr	r3, [r3, #4]
 80035ae:	f043 4200 	orr.w	r2, r3, #2147483648	@ 0x80000000
 80035b2:	6b7b      	ldr	r3, [r7, #52]	@ 0x34
 80035b4:	605a      	str	r2, [r3, #4]
                    pxBlock->pxNextFreeBlock = NULL;
 80035b6:	6b7b      	ldr	r3, [r7, #52]	@ 0x34
 80035b8:	2200      	movs	r2, #0
 80035ba:	601a      	str	r2, [r3, #0]
                    xNumberOfSuccessfulAllocations++;
 80035bc:	4b14      	ldr	r3, [pc, #80]	@ (8003610 <pvPortMalloc+0x260>)
 80035be:	681b      	ldr	r3, [r3, #0]
 80035c0:	3301      	adds	r3, #1
 80035c2:	4a13      	ldr	r2, [pc, #76]	@ (8003610 <pvPortMalloc+0x260>)
 80035c4:	6013      	str	r3, [r2, #0]
            mtCOVERAGE_TEST_MARKER();
        }

        traceMALLOC( pvReturn, xWantedSize );
    }
    ( void ) xTaskResumeAll();
 80035c6:	f7ff f913 	bl	80027f0 <xTaskResumeAll>
            mtCOVERAGE_TEST_MARKER();
        }
    }
    #endif /* if ( configUSE_MALLOC_FAILED_HOOK == 1 ) */

    configASSERT( ( ( ( size_t ) pvReturn ) & ( size_t ) portBYTE_ALIGNMENT_MASK ) == 0 );
 80035ca:	6afb      	ldr	r3, [r7, #44]	@ 0x2c
 80035cc:	f003 0307 	and.w	r3, r3, #7
 80035d0:	2b00      	cmp	r3, #0
 80035d2:	d00b      	beq.n	80035ec <pvPortMalloc+0x23c>
    __asm volatile
 80035d4:	f04f 0350 	mov.w	r3, #80	@ 0x50
 80035d8:	f383 8811 	msr	BASEPRI, r3
 80035dc:	f3bf 8f6f 	isb	sy
 80035e0:	f3bf 8f4f 	dsb	sy
 80035e4:	60fb      	str	r3, [r7, #12]
}
 80035e6:	bf00      	nop
 80035e8:	bf00      	nop
 80035ea:	e7fd      	b.n	80035e8 <pvPortMalloc+0x238>
    return pvReturn;
 80035ec:	6afb      	ldr	r3, [r7, #44]	@ 0x2c
}
 80035ee:	4618      	mov	r0, r3
 80035f0:	3738      	adds	r7, #56	@ 0x38
 80035f2:	46bd      	mov	sp, r7
 80035f4:	bd80      	pop	{r7, pc}
 80035f6:	bf00      	nop
 80035f8:	20004840 	.word	0x20004840
 80035fc:	20004844 	.word	0x20004844
 8003600:	20004838 	.word	0x20004838
 8003604:	20001838 	.word	0x20001838
 8003608:	20004837 	.word	0x20004837
 800360c:	20004848 	.word	0x20004848
 8003610:	2000484c 	.word	0x2000484c

08003614 <vPortFree>:
/*-----------------------------------------------------------*/

void vPortFree( void * pv )
{
 8003614:	b580      	push	{r7, lr}
 8003616:	b088      	sub	sp, #32
 8003618:	af00      	add	r7, sp, #0
 800361a:	6078      	str	r0, [r7, #4]
    uint8_t * puc = ( uint8_t * ) pv;
 800361c:	687b      	ldr	r3, [r7, #4]
 800361e:	61fb      	str	r3, [r7, #28]
    BlockLink_t * pxLink;

    if( pv != NULL )
 8003620:	687b      	ldr	r3, [r7, #4]
 8003622:	2b00      	cmp	r3, #0
 8003624:	d060      	beq.n	80036e8 <vPortFree+0xd4>
    {
        /* The memory being freed will have an BlockLink_t structure immediately
         * before it. */
        puc -= xHeapStructSize;
 8003626:	2308      	movs	r3, #8
 8003628:	425b      	negs	r3, r3
 800362a:	69fa      	ldr	r2, [r7, #28]
 800362c:	4413      	add	r3, r2
 800362e:	61fb      	str	r3, [r7, #28]

        /* This casting is to keep the compiler from issuing warnings. */
        pxLink = ( void * ) puc;
 8003630:	69fb      	ldr	r3, [r7, #28]
 8003632:	61bb      	str	r3, [r7, #24]

        heapVALIDATE_BLOCK_POINTER( pxLink );
 8003634:	69bb      	ldr	r3, [r7, #24]
 8003636:	4a2e      	ldr	r2, [pc, #184]	@ (80036f0 <vPortFree+0xdc>)
 8003638:	4293      	cmp	r3, r2
 800363a:	d305      	bcc.n	8003648 <vPortFree+0x34>
 800363c:	69bb      	ldr	r3, [r7, #24]
 800363e:	4a2d      	ldr	r2, [pc, #180]	@ (80036f4 <vPortFree+0xe0>)
 8003640:	4293      	cmp	r3, r2
 8003642:	d801      	bhi.n	8003648 <vPortFree+0x34>
 8003644:	2301      	movs	r3, #1
 8003646:	e000      	b.n	800364a <vPortFree+0x36>
 8003648:	2300      	movs	r3, #0
 800364a:	2b00      	cmp	r3, #0
 800364c:	d10b      	bne.n	8003666 <vPortFree+0x52>
    __asm volatile
 800364e:	f04f 0350 	mov.w	r3, #80	@ 0x50
 8003652:	f383 8811 	msr	BASEPRI, r3
 8003656:	f3bf 8f6f 	isb	sy
 800365a:	f3bf 8f4f 	dsb	sy
 800365e:	617b      	str	r3, [r7, #20]
}
 8003660:	bf00      	nop
 8003662:	bf00      	nop
 8003664:	e7fd      	b.n	8003662 <vPortFree+0x4e>
        configASSERT( heapBLOCK_IS_ALLOCATED( pxLink ) != 0 );
 8003666:	69bb      	ldr	r3, [r7, #24]
 8003668:	685b      	ldr	r3, [r3, #4]
 800366a:	2b00      	cmp	r3, #0
 800366c:	db0b      	blt.n	8003686 <vPortFree+0x72>
    __asm volatile
 800366e:	f04f 0350 	mov.w	r3, #80	@ 0x50
 8003672:	f383 8811 	msr	BASEPRI, r3
 8003676:	f3bf 8f6f 	isb	sy
 800367a:	f3bf 8f4f 	dsb	sy
 800367e:	613b      	str	r3, [r7, #16]
}
 8003680:	bf00      	nop
 8003682:	bf00      	nop
 8003684:	e7fd      	b.n	8003682 <vPortFree+0x6e>
        configASSERT( pxLink->pxNextFreeBlock == NULL );
 8003686:	69bb      	ldr	r3, [r7, #24]
 8003688:	681b      	ldr	r3, [r3, #0]
 800368a:	2b00      	cmp	r3, #0
 800368c:	d00b      	beq.n	80036a6 <vPortFree+0x92>
    __asm volatile
 800368e:	f04f 0350 	mov.w	r3, #80	@ 0x50
 8003692:	f383 8811 	msr	BASEPRI, r3
 8003696:	f3bf 8f6f 	isb	sy
 800369a:	f3bf 8f4f 	dsb	sy
 800369e:	60fb      	str	r3, [r7, #12]
}
 80036a0:	bf00      	nop
 80036a2:	bf00      	nop
 80036a4:	e7fd      	b.n	80036a2 <vPortFree+0x8e>

        if( heapBLOCK_IS_ALLOCATED( pxLink ) != 0 )
 80036a6:	69bb      	ldr	r3, [r7, #24]
 80036a8:	685b      	ldr	r3, [r3, #4]
 80036aa:	2b00      	cmp	r3, #0
 80036ac:	da1c      	bge.n	80036e8 <vPortFree+0xd4>
        {
            if( pxLink->pxNextFreeBlock == NULL )
 80036ae:	69bb      	ldr	r3, [r7, #24]
 80036b0:	681b      	ldr	r3, [r3, #0]
 80036b2:	2b00      	cmp	r3, #0
 80036b4:	d118      	bne.n	80036e8 <vPortFree+0xd4>
            {
                /* The block is being returned to the heap - it is no longer
                 * allocated. */
                heapFREE_BLOCK( pxLink );
 80036b6:	69bb      	ldr	r3, [r7, #24]
 80036b8:	685b      	ldr	r3, [r3, #4]
 80036ba:	f023 4200 	bic.w	r2, r3, #2147483648	@ 0x80000000
 80036be:	69bb      	ldr	r3, [r7, #24]
 80036c0:	605a      	str	r2, [r3, #4]
                        ( void ) memset( puc + xHeapStructSize, 0, pxLink->xBlockSize - xHeapStructSize );
                    }
                }
                #endif

                vTaskSuspendAll();
 80036c2:	f7ff f883 	bl	80027cc <vTaskSuspendAll>
                {
                    /* Add this block to the list of free blocks. */
                    xFreeBytesRemaining += pxLink->xBlockSize;
 80036c6:	69bb      	ldr	r3, [r7, #24]
 80036c8:	685a      	ldr	r2, [r3, #4]
 80036ca:	4b0b      	ldr	r3, [pc, #44]	@ (80036f8 <vPortFree+0xe4>)
 80036cc:	681b      	ldr	r3, [r3, #0]
 80036ce:	4413      	add	r3, r2
 80036d0:	4a09      	ldr	r2, [pc, #36]	@ (80036f8 <vPortFree+0xe4>)
 80036d2:	6013      	str	r3, [r2, #0]
                    traceFREE( pv, pxLink->xBlockSize );
                    prvInsertBlockIntoFreeList( ( ( BlockLink_t * ) pxLink ) );
 80036d4:	69b8      	ldr	r0, [r7, #24]
 80036d6:	f000 f86d 	bl	80037b4 <prvInsertBlockIntoFreeList>
                    xNumberOfSuccessfulFrees++;
 80036da:	4b08      	ldr	r3, [pc, #32]	@ (80036fc <vPortFree+0xe8>)
 80036dc:	681b      	ldr	r3, [r3, #0]
 80036de:	3301      	adds	r3, #1
 80036e0:	4a06      	ldr	r2, [pc, #24]	@ (80036fc <vPortFree+0xe8>)
 80036e2:	6013      	str	r3, [r2, #0]
                }
                ( void ) xTaskResumeAll();
 80036e4:	f7ff f884 	bl	80027f0 <xTaskResumeAll>
        else
        {
            mtCOVERAGE_TEST_MARKER();
        }
    }
}
 80036e8:	bf00      	nop
 80036ea:	3720      	adds	r7, #32
 80036ec:	46bd      	mov	sp, r7
 80036ee:	bd80      	pop	{r7, pc}
 80036f0:	20001838 	.word	0x20001838
 80036f4:	20004837 	.word	0x20004837
 80036f8:	20004844 	.word	0x20004844
 80036fc:	20004850 	.word	0x20004850

08003700 <prvHeapInit>:
    return pv;
}
/*-----------------------------------------------------------*/

static void prvHeapInit( void ) /* PRIVILEGED_FUNCTION */
{
 8003700:	b480      	push	{r7}
 8003702:	b085      	sub	sp, #20
 8003704:	af00      	add	r7, sp, #0
    BlockLink_t * pxFirstFreeBlock;
    portPOINTER_SIZE_TYPE uxStartAddress, uxEndAddress;
    size_t xTotalHeapSize = configTOTAL_HEAP_SIZE;
 8003706:	f44f 5340 	mov.w	r3, #12288	@ 0x3000
 800370a:	60bb      	str	r3, [r7, #8]

    /* Ensure the heap starts on a correctly aligned boundary. */
    uxStartAddress = ( portPOINTER_SIZE_TYPE ) ucHeap;
 800370c:	4b24      	ldr	r3, [pc, #144]	@ (80037a0 <prvHeapInit+0xa0>)
 800370e:	60fb      	str	r3, [r7, #12]

    if( ( uxStartAddress & portBYTE_ALIGNMENT_MASK ) != 0 )
 8003710:	68fb      	ldr	r3, [r7, #12]
 8003712:	f003 0307 	and.w	r3, r3, #7
 8003716:	2b00      	cmp	r3, #0
 8003718:	d00c      	beq.n	8003734 <prvHeapInit+0x34>
    {
        uxStartAddress += ( portBYTE_ALIGNMENT - 1 );
 800371a:	68fb      	ldr	r3, [r7, #12]
 800371c:	3307      	adds	r3, #7
 800371e:	60fb      	str	r3, [r7, #12]
        uxStartAddress &= ~( ( portPOINTER_SIZE_TYPE ) portBYTE_ALIGNMENT_MASK );
 8003720:	68fb      	ldr	r3, [r7, #12]
 8003722:	f023 0307 	bic.w	r3, r3, #7
 8003726:	60fb      	str	r3, [r7, #12]
        xTotalHeapSize -= ( size_t ) ( uxStartAddress - ( portPOINTER_SIZE_TYPE ) ucHeap );
 8003728:	68ba      	ldr	r2, [r7, #8]
 800372a:	68fb      	ldr	r3, [r7, #12]
 800372c:	1ad3      	subs	r3, r2, r3
 800372e:	4a1c      	ldr	r2, [pc, #112]	@ (80037a0 <prvHeapInit+0xa0>)
 8003730:	4413      	add	r3, r2
 8003732:	60bb      	str	r3, [r7, #8]
    }
    #endif

    /* xStart is used to hold a pointer to the first item in the list of free
     * blocks.  The void cast is used to prevent compiler warnings. */
    xStart.pxNextFreeBlock = ( void * ) heapPROTECT_BLOCK_POINTER( uxStartAddress );
 8003734:	68fb      	ldr	r3, [r7, #12]
 8003736:	4a1b      	ldr	r2, [pc, #108]	@ (80037a4 <prvHeapInit+0xa4>)
 8003738:	6013      	str	r3, [r2, #0]
    xStart.xBlockSize = ( size_t ) 0;
 800373a:	4b1a      	ldr	r3, [pc, #104]	@ (80037a4 <prvHeapInit+0xa4>)
 800373c:	2200      	movs	r2, #0
 800373e:	605a      	str	r2, [r3, #4]

    /* pxEnd is used to mark the end of the list of free blocks and is inserted
     * at the end of the heap space. */
    uxEndAddress = uxStartAddress + ( portPOINTER_SIZE_TYPE ) xTotalHeapSize;
 8003740:	68fa      	ldr	r2, [r7, #12]
 8003742:	68bb      	ldr	r3, [r7, #8]
 8003744:	4413      	add	r3, r2
 8003746:	607b      	str	r3, [r7, #4]
    uxEndAddress -= ( portPOINTER_SIZE_TYPE ) xHeapStructSize;
 8003748:	2208      	movs	r2, #8
 800374a:	687b      	ldr	r3, [r7, #4]
 800374c:	1a9b      	subs	r3, r3, r2
 800374e:	607b      	str	r3, [r7, #4]
    uxEndAddress &= ~( ( portPOINTER_SIZE_TYPE ) portBYTE_ALIGNMENT_MASK );
 8003750:	687b      	ldr	r3, [r7, #4]
 8003752:	f023 0307 	bic.w	r3, r3, #7
 8003756:	607b      	str	r3, [r7, #4]
    pxEnd = ( BlockLink_t * ) uxEndAddress;
 8003758:	687b      	ldr	r3, [r7, #4]
 800375a:	4a13      	ldr	r2, [pc, #76]	@ (80037a8 <prvHeapInit+0xa8>)
 800375c:	6013      	str	r3, [r2, #0]
    pxEnd->xBlockSize = 0;
 800375e:	4b12      	ldr	r3, [pc, #72]	@ (80037a8 <prvHeapInit+0xa8>)
 8003760:	681b      	ldr	r3, [r3, #0]
 8003762:	2200      	movs	r2, #0
 8003764:	605a      	str	r2, [r3, #4]
    pxEnd->pxNextFreeBlock = heapPROTECT_BLOCK_POINTER( NULL );
 8003766:	4b10      	ldr	r3, [pc, #64]	@ (80037a8 <prvHeapInit+0xa8>)
 8003768:	681b      	ldr	r3, [r3, #0]
 800376a:	2200      	movs	r2, #0
 800376c:	601a      	str	r2, [r3, #0]

    /* To start with there is a single free block that is sized to take up the
     * entire heap space, minus the space taken by pxEnd. */
    pxFirstFreeBlock = ( BlockLink_t * ) uxStartAddress;
 800376e:	68fb      	ldr	r3, [r7, #12]
 8003770:	603b      	str	r3, [r7, #0]
    pxFirstFreeBlock->xBlockSize = ( size_t ) ( uxEndAddress - ( portPOINTER_SIZE_TYPE ) pxFirstFreeBlock );
 8003772:	683b      	ldr	r3, [r7, #0]
 8003774:	687a      	ldr	r2, [r7, #4]
 8003776:	1ad2      	subs	r2, r2, r3
 8003778:	683b      	ldr	r3, [r7, #0]
 800377a:	605a      	str	r2, [r3, #4]
    pxFirstFreeBlock->pxNextFreeBlock = heapPROTECT_BLOCK_POINTER( pxEnd );
 800377c:	4b0a      	ldr	r3, [pc, #40]	@ (80037a8 <prvHeapInit+0xa8>)
 800377e:	681a      	ldr	r2, [r3, #0]
 8003780:	683b      	ldr	r3, [r7, #0]
 8003782:	601a      	str	r2, [r3, #0]

    /* Only one block exists - and it covers the entire usable heap space. */
    xMinimumEverFreeBytesRemaining = pxFirstFreeBlock->xBlockSize;
 8003784:	683b      	ldr	r3, [r7, #0]
 8003786:	685b      	ldr	r3, [r3, #4]
 8003788:	4a08      	ldr	r2, [pc, #32]	@ (80037ac <prvHeapInit+0xac>)
 800378a:	6013      	str	r3, [r2, #0]
    xFreeBytesRemaining = pxFirstFreeBlock->xBlockSize;
 800378c:	683b      	ldr	r3, [r7, #0]
 800378e:	685b      	ldr	r3, [r3, #4]
 8003790:	4a07      	ldr	r2, [pc, #28]	@ (80037b0 <prvHeapInit+0xb0>)
 8003792:	6013      	str	r3, [r2, #0]
}
 8003794:	bf00      	nop
 8003796:	3714      	adds	r7, #20
 8003798:	46bd      	mov	sp, r7
 800379a:	f85d 7b04 	ldr.w	r7, [sp], #4
 800379e:	4770      	bx	lr
 80037a0:	20001838 	.word	0x20001838
 80037a4:	20004838 	.word	0x20004838
 80037a8:	20004840 	.word	0x20004840
 80037ac:	20004848 	.word	0x20004848
 80037b0:	20004844 	.word	0x20004844

080037b4 <prvInsertBlockIntoFreeList>:
/*-----------------------------------------------------------*/

static void prvInsertBlockIntoFreeList( BlockLink_t * pxBlockToInsert ) /* PRIVILEGED_FUNCTION */
{
 80037b4:	b480      	push	{r7}
 80037b6:	b087      	sub	sp, #28
 80037b8:	af00      	add	r7, sp, #0
 80037ba:	6078      	str	r0, [r7, #4]
    BlockLink_t * pxIterator;
    uint8_t * puc;

    /* Iterate through the list until a block is found that has a higher address
     * than the block being inserted. */
    for( pxIterator = &xStart; heapPROTECT_BLOCK_POINTER( pxIterator->pxNextFreeBlock ) < pxBlockToInsert; pxIterator = heapPROTECT_BLOCK_POINTER( pxIterator->pxNextFreeBlock ) )
 80037bc:	4b36      	ldr	r3, [pc, #216]	@ (8003898 <prvInsertBlockIntoFreeList+0xe4>)
 80037be:	617b      	str	r3, [r7, #20]
 80037c0:	e002      	b.n	80037c8 <prvInsertBlockIntoFreeList+0x14>
 80037c2:	697b      	ldr	r3, [r7, #20]
 80037c4:	681b      	ldr	r3, [r3, #0]
 80037c6:	617b      	str	r3, [r7, #20]
 80037c8:	697b      	ldr	r3, [r7, #20]
 80037ca:	681b      	ldr	r3, [r3, #0]
 80037cc:	687a      	ldr	r2, [r7, #4]
 80037ce:	429a      	cmp	r2, r3
 80037d0:	d8f7      	bhi.n	80037c2 <prvInsertBlockIntoFreeList+0xe>
    {
        /* Nothing to do here, just iterate to the right position. */
    }

    if( pxIterator != &xStart )
 80037d2:	697b      	ldr	r3, [r7, #20]
 80037d4:	4a30      	ldr	r2, [pc, #192]	@ (8003898 <prvInsertBlockIntoFreeList+0xe4>)
 80037d6:	4293      	cmp	r3, r2
 80037d8:	d018      	beq.n	800380c <prvInsertBlockIntoFreeList+0x58>
    {
        heapVALIDATE_BLOCK_POINTER( pxIterator );
 80037da:	697b      	ldr	r3, [r7, #20]
 80037dc:	4a2f      	ldr	r2, [pc, #188]	@ (800389c <prvInsertBlockIntoFreeList+0xe8>)
 80037de:	4293      	cmp	r3, r2
 80037e0:	d305      	bcc.n	80037ee <prvInsertBlockIntoFreeList+0x3a>
 80037e2:	697b      	ldr	r3, [r7, #20]
 80037e4:	4a2e      	ldr	r2, [pc, #184]	@ (80038a0 <prvInsertBlockIntoFreeList+0xec>)
 80037e6:	4293      	cmp	r3, r2
 80037e8:	d801      	bhi.n	80037ee <prvInsertBlockIntoFreeList+0x3a>
 80037ea:	2301      	movs	r3, #1
 80037ec:	e000      	b.n	80037f0 <prvInsertBlockIntoFreeList+0x3c>
 80037ee:	2300      	movs	r3, #0
 80037f0:	2b00      	cmp	r3, #0
 80037f2:	d10b      	bne.n	800380c <prvInsertBlockIntoFreeList+0x58>
    __asm volatile
 80037f4:	f04f 0350 	mov.w	r3, #80	@ 0x50
 80037f8:	f383 8811 	msr	BASEPRI, r3
 80037fc:	f3bf 8f6f 	isb	sy
 8003800:	f3bf 8f4f 	dsb	sy
 8003804:	60fb      	str	r3, [r7, #12]
}
 8003806:	bf00      	nop
 8003808:	bf00      	nop
 800380a:	e7fd      	b.n	8003808 <prvInsertBlockIntoFreeList+0x54>
    }

    /* Do the block being inserted, and the block it is being inserted after
     * make a contiguous block of memory? */
    puc = ( uint8_t * ) pxIterator;
 800380c:	697b      	ldr	r3, [r7, #20]
 800380e:	613b      	str	r3, [r7, #16]

    if( ( puc + pxIterator->xBlockSize ) == ( uint8_t * ) pxBlockToInsert )
 8003810:	697b      	ldr	r3, [r7, #20]
 8003812:	685b      	ldr	r3, [r3, #4]
 8003814:	693a      	ldr	r2, [r7, #16]
 8003816:	4413      	add	r3, r2
 8003818:	687a      	ldr	r2, [r7, #4]
 800381a:	429a      	cmp	r2, r3
 800381c:	d108      	bne.n	8003830 <prvInsertBlockIntoFreeList+0x7c>
    {
        pxIterator->xBlockSize += pxBlockToInsert->xBlockSize;
 800381e:	697b      	ldr	r3, [r7, #20]
 8003820:	685a      	ldr	r2, [r3, #4]
 8003822:	687b      	ldr	r3, [r7, #4]
 8003824:	685b      	ldr	r3, [r3, #4]
 8003826:	441a      	add	r2, r3
 8003828:	697b      	ldr	r3, [r7, #20]
 800382a:	605a      	str	r2, [r3, #4]
        pxBlockToInsert = pxIterator;
 800382c:	697b      	ldr	r3, [r7, #20]
 800382e:	607b      	str	r3, [r7, #4]
        mtCOVERAGE_TEST_MARKER();
    }

    /* Do the block being inserted, and the block it is being inserted before
     * make a contiguous block of memory? */
    puc = ( uint8_t * ) pxBlockToInsert;
 8003830:	687b      	ldr	r3, [r7, #4]
 8003832:	613b      	str	r3, [r7, #16]

    if( ( puc + pxBlockToInsert->xBlockSize ) == ( uint8_t * ) heapPROTECT_BLOCK_POINTER( pxIterator->pxNextFreeBlock ) )
 8003834:	687b      	ldr	r3, [r7, #4]
 8003836:	685b      	ldr	r3, [r3, #4]
 8003838:	693a      	ldr	r2, [r7, #16]
 800383a:	441a      	add	r2, r3
 800383c:	697b      	ldr	r3, [r7, #20]
 800383e:	681b      	ldr	r3, [r3, #0]
 8003840:	429a      	cmp	r2, r3
 8003842:	d118      	bne.n	8003876 <prvInsertBlockIntoFreeList+0xc2>
    {
        if( heapPROTECT_BLOCK_POINTER( pxIterator->pxNextFreeBlock ) != pxEnd )
 8003844:	697b      	ldr	r3, [r7, #20]
 8003846:	681a      	ldr	r2, [r3, #0]
 8003848:	4b16      	ldr	r3, [pc, #88]	@ (80038a4 <prvInsertBlockIntoFreeList+0xf0>)
 800384a:	681b      	ldr	r3, [r3, #0]
 800384c:	429a      	cmp	r2, r3
 800384e:	d00d      	beq.n	800386c <prvInsertBlockIntoFreeList+0xb8>
        {
            /* Form one big block from the two blocks. */
            pxBlockToInsert->xBlockSize += heapPROTECT_BLOCK_POINTER( pxIterator->pxNextFreeBlock )->xBlockSize;
 8003850:	687b      	ldr	r3, [r7, #4]
 8003852:	685a      	ldr	r2, [r3, #4]
 8003854:	697b      	ldr	r3, [r7, #20]
 8003856:	681b      	ldr	r3, [r3, #0]
 8003858:	685b      	ldr	r3, [r3, #4]
 800385a:	441a      	add	r2, r3
 800385c:	687b      	ldr	r3, [r7, #4]
 800385e:	605a      	str	r2, [r3, #4]
            pxBlockToInsert->pxNextFreeBlock = heapPROTECT_BLOCK_POINTER( pxIterator->pxNextFreeBlock )->pxNextFreeBlock;
 8003860:	697b      	ldr	r3, [r7, #20]
 8003862:	681b      	ldr	r3, [r3, #0]
 8003864:	681a      	ldr	r2, [r3, #0]
 8003866:	687b      	ldr	r3, [r7, #4]
 8003868:	601a      	str	r2, [r3, #0]
 800386a:	e008      	b.n	800387e <prvInsertBlockIntoFreeList+0xca>
        }
        else
        {
            pxBlockToInsert->pxNextFreeBlock = heapPROTECT_BLOCK_POINTER( pxEnd );
 800386c:	4b0d      	ldr	r3, [pc, #52]	@ (80038a4 <prvInsertBlockIntoFreeList+0xf0>)
 800386e:	681a      	ldr	r2, [r3, #0]
 8003870:	687b      	ldr	r3, [r7, #4]
 8003872:	601a      	str	r2, [r3, #0]
 8003874:	e003      	b.n	800387e <prvInsertBlockIntoFreeList+0xca>
        }
    }
    else
    {
        pxBlockToInsert->pxNextFreeBlock = pxIterator->pxNextFreeBlock;
 8003876:	697b      	ldr	r3, [r7, #20]
 8003878:	681a      	ldr	r2, [r3, #0]
 800387a:	687b      	ldr	r3, [r7, #4]
 800387c:	601a      	str	r2, [r3, #0]

    /* If the block being inserted plugged a gab, so was merged with the block
     * before and the block after, then it's pxNextFreeBlock pointer will have
     * already been set, and should not be set here as that would make it point
     * to itself. */
    if( pxIterator != pxBlockToInsert )
 800387e:	697a      	ldr	r2, [r7, #20]
 8003880:	687b      	ldr	r3, [r7, #4]
 8003882:	429a      	cmp	r2, r3
 8003884:	d002      	beq.n	800388c <prvInsertBlockIntoFreeList+0xd8>
    {
        pxIterator->pxNextFreeBlock = heapPROTECT_BLOCK_POINTER( pxBlockToInsert );
 8003886:	697b      	ldr	r3, [r7, #20]
 8003888:	687a      	ldr	r2, [r7, #4]
 800388a:	601a      	str	r2, [r3, #0]
    }
    else
    {
        mtCOVERAGE_TEST_MARKER();
    }
}
 800388c:	bf00      	nop
 800388e:	371c      	adds	r7, #28
 8003890:	46bd      	mov	sp, r7
 8003892:	f85d 7b04 	ldr.w	r7, [sp], #4
 8003896:	4770      	bx	lr
 8003898:	20004838 	.word	0x20004838
 800389c:	20001838 	.word	0x20001838
 80038a0:	20004837 	.word	0x20004837
 80038a4:	20004840 	.word	0x20004840

080038a8 <std>:
 80038a8:	2300      	movs	r3, #0
 80038aa:	b510      	push	{r4, lr}
 80038ac:	4604      	mov	r4, r0
 80038ae:	e9c0 3300 	strd	r3, r3, [r0]
 80038b2:	e9c0 3304 	strd	r3, r3, [r0, #16]
 80038b6:	6083      	str	r3, [r0, #8]
 80038b8:	8181      	strh	r1, [r0, #12]
 80038ba:	6643      	str	r3, [r0, #100]	@ 0x64
 80038bc:	81c2      	strh	r2, [r0, #14]
 80038be:	6183      	str	r3, [r0, #24]
 80038c0:	4619      	mov	r1, r3
 80038c2:	2208      	movs	r2, #8
 80038c4:	305c      	adds	r0, #92	@ 0x5c
 80038c6:	f000 f9f7 	bl	8003cb8 <memset>
 80038ca:	4b0d      	ldr	r3, [pc, #52]	@ (8003900 <std+0x58>)
 80038cc:	6263      	str	r3, [r4, #36]	@ 0x24
 80038ce:	4b0d      	ldr	r3, [pc, #52]	@ (8003904 <std+0x5c>)
 80038d0:	62a3      	str	r3, [r4, #40]	@ 0x28
 80038d2:	4b0d      	ldr	r3, [pc, #52]	@ (8003908 <std+0x60>)
 80038d4:	62e3      	str	r3, [r4, #44]	@ 0x2c
 80038d6:	4b0d      	ldr	r3, [pc, #52]	@ (800390c <std+0x64>)
 80038d8:	6323      	str	r3, [r4, #48]	@ 0x30
 80038da:	4b0d      	ldr	r3, [pc, #52]	@ (8003910 <std+0x68>)
 80038dc:	6224      	str	r4, [r4, #32]
 80038de:	429c      	cmp	r4, r3
 80038e0:	d006      	beq.n	80038f0 <std+0x48>
 80038e2:	f103 0268 	add.w	r2, r3, #104	@ 0x68
 80038e6:	4294      	cmp	r4, r2
 80038e8:	d002      	beq.n	80038f0 <std+0x48>
 80038ea:	33d0      	adds	r3, #208	@ 0xd0
 80038ec:	429c      	cmp	r4, r3
 80038ee:	d105      	bne.n	80038fc <std+0x54>
 80038f0:	f104 0058 	add.w	r0, r4, #88	@ 0x58
 80038f4:	e8bd 4010 	ldmia.w	sp!, {r4, lr}
 80038f8:	f000 ba3e 	b.w	8003d78 <__retarget_lock_init_recursive>
 80038fc:	bd10      	pop	{r4, pc}
 80038fe:	bf00      	nop
 8003900:	08003ae9 	.word	0x08003ae9
 8003904:	08003b0b 	.word	0x08003b0b
 8003908:	08003b43 	.word	0x08003b43
 800390c:	08003b67 	.word	0x08003b67
 8003910:	20004854 	.word	0x20004854

08003914 <stdio_exit_handler>:
 8003914:	4a02      	ldr	r2, [pc, #8]	@ (8003920 <stdio_exit_handler+0xc>)
 8003916:	4903      	ldr	r1, [pc, #12]	@ (8003924 <stdio_exit_handler+0x10>)
 8003918:	4803      	ldr	r0, [pc, #12]	@ (8003928 <stdio_exit_handler+0x14>)
 800391a:	f000 b869 	b.w	80039f0 <_fwalk_sglue>
 800391e:	bf00      	nop
 8003920:	20000008 	.word	0x20000008
 8003924:	08004095 	.word	0x08004095
 8003928:	20000018 	.word	0x20000018

0800392c <cleanup_stdio>:
 800392c:	6841      	ldr	r1, [r0, #4]
 800392e:	4b0c      	ldr	r3, [pc, #48]	@ (8003960 <cleanup_stdio+0x34>)
 8003930:	4299      	cmp	r1, r3
 8003932:	b510      	push	{r4, lr}
 8003934:	4604      	mov	r4, r0
 8003936:	d001      	beq.n	800393c <cleanup_stdio+0x10>
 8003938:	f000 fbac 	bl	8004094 <_fflush_r>
 800393c:	68a1      	ldr	r1, [r4, #8]
 800393e:	4b09      	ldr	r3, [pc, #36]	@ (8003964 <cleanup_stdio+0x38>)
 8003940:	4299      	cmp	r1, r3
 8003942:	d002      	beq.n	800394a <cleanup_stdio+0x1e>
 8003944:	4620      	mov	r0, r4
 8003946:	f000 fba5 	bl	8004094 <_fflush_r>
 800394a:	68e1      	ldr	r1, [r4, #12]
 800394c:	4b06      	ldr	r3, [pc, #24]	@ (8003968 <cleanup_stdio+0x3c>)
 800394e:	4299      	cmp	r1, r3
 8003950:	d004      	beq.n	800395c <cleanup_stdio+0x30>
 8003952:	4620      	mov	r0, r4
 8003954:	e8bd 4010 	ldmia.w	sp!, {r4, lr}
 8003958:	f000 bb9c 	b.w	8004094 <_fflush_r>
 800395c:	bd10      	pop	{r4, pc}
 800395e:	bf00      	nop
 8003960:	20004854 	.word	0x20004854
 8003964:	200048bc 	.word	0x200048bc
 8003968:	20004924 	.word	0x20004924

0800396c <global_stdio_init.part.0>:
 800396c:	b510      	push	{r4, lr}
 800396e:	4b0b      	ldr	r3, [pc, #44]	@ (800399c <global_stdio_init.part.0+0x30>)
 8003970:	4c0b      	ldr	r4, [pc, #44]	@ (80039a0 <global_stdio_init.part.0+0x34>)
 8003972:	4a0c      	ldr	r2, [pc, #48]	@ (80039a4 <global_stdio_init.part.0+0x38>)
 8003974:	601a      	str	r2, [r3, #0]
 8003976:	4620      	mov	r0, r4
 8003978:	2200      	movs	r2, #0
 800397a:	2104      	movs	r1, #4
 800397c:	f7ff ff94 	bl	80038a8 <std>
 8003980:	f104 0068 	add.w	r0, r4, #104	@ 0x68
 8003984:	2201      	movs	r2, #1
 8003986:	2109      	movs	r1, #9
 8003988:	f7ff ff8e 	bl	80038a8 <std>
 800398c:	f104 00d0 	add.w	r0, r4, #208	@ 0xd0
 8003990:	2202      	movs	r2, #2
 8003992:	e8bd 4010 	ldmia.w	sp!, {r4, lr}
 8003996:	2112      	movs	r1, #18
 8003998:	f7ff bf86 	b.w	80038a8 <std>
 800399c:	2000498c 	.word	0x2000498c
 80039a0:	20004854 	.word	0x20004854
 80039a4:	08003915 	.word	0x08003915

080039a8 <__sfp_lock_acquire>:
 80039a8:	4801      	ldr	r0, [pc, #4]	@ (80039b0 <__sfp_lock_acquire+0x8>)
 80039aa:	f000 b9e6 	b.w	8003d7a <__retarget_lock_acquire_recursive>
 80039ae:	bf00      	nop
 80039b0:	20004995 	.word	0x20004995

080039b4 <__sfp_lock_release>:
 80039b4:	4801      	ldr	r0, [pc, #4]	@ (80039bc <__sfp_lock_release+0x8>)
 80039b6:	f000 b9e1 	b.w	8003d7c <__retarget_lock_release_recursive>
 80039ba:	bf00      	nop
 80039bc:	20004995 	.word	0x20004995

080039c0 <__sinit>:
 80039c0:	b510      	push	{r4, lr}
 80039c2:	4604      	mov	r4, r0
 80039c4:	f7ff fff0 	bl	80039a8 <__sfp_lock_acquire>
 80039c8:	6a23      	ldr	r3, [r4, #32]
 80039ca:	b11b      	cbz	r3, 80039d4 <__sinit+0x14>
 80039cc:	e8bd 4010 	ldmia.w	sp!, {r4, lr}
 80039d0:	f7ff bff0 	b.w	80039b4 <__sfp_lock_release>
 80039d4:	4b04      	ldr	r3, [pc, #16]	@ (80039e8 <__sinit+0x28>)
 80039d6:	6223      	str	r3, [r4, #32]
 80039d8:	4b04      	ldr	r3, [pc, #16]	@ (80039ec <__sinit+0x2c>)
 80039da:	681b      	ldr	r3, [r3, #0]
 80039dc:	2b00      	cmp	r3, #0
 80039de:	d1f5      	bne.n	80039cc <__sinit+0xc>
 80039e0:	f7ff ffc4 	bl	800396c <global_stdio_init.part.0>
 80039e4:	e7f2      	b.n	80039cc <__sinit+0xc>
 80039e6:	bf00      	nop
 80039e8:	0800392d 	.word	0x0800392d
 80039ec:	2000498c 	.word	0x2000498c

080039f0 <_fwalk_sglue>:
 80039f0:	e92d 43f8 	stmdb	sp!, {r3, r4, r5, r6, r7, r8, r9, lr}
 80039f4:	4607      	mov	r7, r0
 80039f6:	4688      	mov	r8, r1
 80039f8:	4614      	mov	r4, r2
 80039fa:	2600      	movs	r6, #0
 80039fc:	e9d4 9501 	ldrd	r9, r5, [r4, #4]
 8003a00:	f1b9 0901 	subs.w	r9, r9, #1
 8003a04:	d505      	bpl.n	8003a12 <_fwalk_sglue+0x22>
 8003a06:	6824      	ldr	r4, [r4, #0]
 8003a08:	2c00      	cmp	r4, #0
 8003a0a:	d1f7      	bne.n	80039fc <_fwalk_sglue+0xc>
 8003a0c:	4630      	mov	r0, r6
 8003a0e:	e8bd 83f8 	ldmia.w	sp!, {r3, r4, r5, r6, r7, r8, r9, pc}
 8003a12:	89ab      	ldrh	r3, [r5, #12]
 8003a14:	2b01      	cmp	r3, #1
 8003a16:	d907      	bls.n	8003a28 <_fwalk_sglue+0x38>
 8003a18:	f9b5 300e 	ldrsh.w	r3, [r5, #14]
 8003a1c:	3301      	adds	r3, #1
 8003a1e:	d003      	beq.n	8003a28 <_fwalk_sglue+0x38>
 8003a20:	4629      	mov	r1, r5
 8003a22:	4638      	mov	r0, r7
 8003a24:	47c0      	blx	r8
 8003a26:	4306      	orrs	r6, r0
 8003a28:	3568      	adds	r5, #104	@ 0x68
 8003a2a:	e7e9      	b.n	8003a00 <_fwalk_sglue+0x10>

08003a2c <_puts_r>:
 8003a2c:	6a03      	ldr	r3, [r0, #32]
 8003a2e:	b570      	push	{r4, r5, r6, lr}
 8003a30:	6884      	ldr	r4, [r0, #8]
 8003a32:	4605      	mov	r5, r0
 8003a34:	460e      	mov	r6, r1
 8003a36:	b90b      	cbnz	r3, 8003a3c <_puts_r+0x10>
 8003a38:	f7ff ffc2 	bl	80039c0 <__sinit>
 8003a3c:	6e63      	ldr	r3, [r4, #100]	@ 0x64
 8003a3e:	07db      	lsls	r3, r3, #31
 8003a40:	d405      	bmi.n	8003a4e <_puts_r+0x22>
 8003a42:	89a3      	ldrh	r3, [r4, #12]
 8003a44:	0598      	lsls	r0, r3, #22
 8003a46:	d402      	bmi.n	8003a4e <_puts_r+0x22>
 8003a48:	6da0      	ldr	r0, [r4, #88]	@ 0x58
 8003a4a:	f000 f996 	bl	8003d7a <__retarget_lock_acquire_recursive>
 8003a4e:	89a3      	ldrh	r3, [r4, #12]
 8003a50:	0719      	lsls	r1, r3, #28
 8003a52:	d502      	bpl.n	8003a5a <_puts_r+0x2e>
 8003a54:	6923      	ldr	r3, [r4, #16]
 8003a56:	2b00      	cmp	r3, #0
 8003a58:	d135      	bne.n	8003ac6 <_puts_r+0x9a>
 8003a5a:	4621      	mov	r1, r4
 8003a5c:	4628      	mov	r0, r5
 8003a5e:	f000 f8c5 	bl	8003bec <__swsetup_r>
 8003a62:	b380      	cbz	r0, 8003ac6 <_puts_r+0x9a>
 8003a64:	f04f 35ff 	mov.w	r5, #4294967295
 8003a68:	6e63      	ldr	r3, [r4, #100]	@ 0x64
 8003a6a:	07da      	lsls	r2, r3, #31
 8003a6c:	d405      	bmi.n	8003a7a <_puts_r+0x4e>
 8003a6e:	89a3      	ldrh	r3, [r4, #12]
 8003a70:	059b      	lsls	r3, r3, #22
 8003a72:	d402      	bmi.n	8003a7a <_puts_r+0x4e>
 8003a74:	6da0      	ldr	r0, [r4, #88]	@ 0x58
 8003a76:	f000 f981 	bl	8003d7c <__retarget_lock_release_recursive>
 8003a7a:	4628      	mov	r0, r5
 8003a7c:	bd70      	pop	{r4, r5, r6, pc}
 8003a7e:	2b00      	cmp	r3, #0
 8003a80:	da04      	bge.n	8003a8c <_puts_r+0x60>
 8003a82:	69a2      	ldr	r2, [r4, #24]
 8003a84:	429a      	cmp	r2, r3
 8003a86:	dc17      	bgt.n	8003ab8 <_puts_r+0x8c>
 8003a88:	290a      	cmp	r1, #10
 8003a8a:	d015      	beq.n	8003ab8 <_puts_r+0x8c>
 8003a8c:	6823      	ldr	r3, [r4, #0]
 8003a8e:	1c5a      	adds	r2, r3, #1
 8003a90:	6022      	str	r2, [r4, #0]
 8003a92:	7019      	strb	r1, [r3, #0]
 8003a94:	68a3      	ldr	r3, [r4, #8]
 8003a96:	f816 1f01 	ldrb.w	r1, [r6, #1]!
 8003a9a:	3b01      	subs	r3, #1
 8003a9c:	60a3      	str	r3, [r4, #8]
 8003a9e:	2900      	cmp	r1, #0
 8003aa0:	d1ed      	bne.n	8003a7e <_puts_r+0x52>
 8003aa2:	2b00      	cmp	r3, #0
 8003aa4:	da11      	bge.n	8003aca <_puts_r+0x9e>
 8003aa6:	4622      	mov	r2, r4
 8003aa8:	210a      	movs	r1, #10
 8003aaa:	4628      	mov	r0, r5
 8003aac:	f000 f85f 	bl	8003b6e <__swbuf_r>
 8003ab0:	3001      	adds	r0, #1
 8003ab2:	d0d7      	beq.n	8003a64 <_puts_r+0x38>
 8003ab4:	250a      	movs	r5, #10
 8003ab6:	e7d7      	b.n	8003a68 <_puts_r+0x3c>
 8003ab8:	4622      	mov	r2, r4
 8003aba:	4628      	mov	r0, r5
 8003abc:	f000 f857 	bl	8003b6e <__swbuf_r>
 8003ac0:	3001      	adds	r0, #1
 8003ac2:	d1e7      	bne.n	8003a94 <_puts_r+0x68>
 8003ac4:	e7ce      	b.n	8003a64 <_puts_r+0x38>
 8003ac6:	3e01      	subs	r6, #1
 8003ac8:	e7e4      	b.n	8003a94 <_puts_r+0x68>
 8003aca:	6823      	ldr	r3, [r4, #0]
 8003acc:	1c5a      	adds	r2, r3, #1
 8003ace:	6022      	str	r2, [r4, #0]
 8003ad0:	220a      	movs	r2, #10
 8003ad2:	701a      	strb	r2, [r3, #0]
 8003ad4:	e7ee      	b.n	8003ab4 <_puts_r+0x88>
	...

08003ad8 <puts>:
 8003ad8:	4b02      	ldr	r3, [pc, #8]	@ (8003ae4 <puts+0xc>)
 8003ada:	4601      	mov	r1, r0
 8003adc:	6818      	ldr	r0, [r3, #0]
 8003ade:	f7ff bfa5 	b.w	8003a2c <_puts_r>
 8003ae2:	bf00      	nop
 8003ae4:	20000014 	.word	0x20000014

08003ae8 <__sread>:
 8003ae8:	b510      	push	{r4, lr}
 8003aea:	460c      	mov	r4, r1
 8003aec:	f9b1 100e 	ldrsh.w	r1, [r1, #14]
 8003af0:	f000 f90c 	bl	8003d0c <_read_r>
 8003af4:	2800      	cmp	r0, #0
 8003af6:	bfab      	itete	ge
 8003af8:	6d63      	ldrge	r3, [r4, #84]	@ 0x54
 8003afa:	89a3      	ldrhlt	r3, [r4, #12]
 8003afc:	181b      	addge	r3, r3, r0
 8003afe:	f423 5380 	biclt.w	r3, r3, #4096	@ 0x1000
 8003b02:	bfac      	ite	ge
 8003b04:	6563      	strge	r3, [r4, #84]	@ 0x54
 8003b06:	81a3      	strhlt	r3, [r4, #12]
 8003b08:	bd10      	pop	{r4, pc}

08003b0a <__swrite>:
 8003b0a:	e92d 41f0 	stmdb	sp!, {r4, r5, r6, r7, r8, lr}
 8003b0e:	461f      	mov	r7, r3
 8003b10:	898b      	ldrh	r3, [r1, #12]
 8003b12:	05db      	lsls	r3, r3, #23
 8003b14:	4605      	mov	r5, r0
 8003b16:	460c      	mov	r4, r1
 8003b18:	4616      	mov	r6, r2
 8003b1a:	d505      	bpl.n	8003b28 <__swrite+0x1e>
 8003b1c:	f9b1 100e 	ldrsh.w	r1, [r1, #14]
 8003b20:	2302      	movs	r3, #2
 8003b22:	2200      	movs	r2, #0
 8003b24:	f000 f8e0 	bl	8003ce8 <_lseek_r>
 8003b28:	89a3      	ldrh	r3, [r4, #12]
 8003b2a:	f9b4 100e 	ldrsh.w	r1, [r4, #14]
 8003b2e:	f423 5380 	bic.w	r3, r3, #4096	@ 0x1000
 8003b32:	81a3      	strh	r3, [r4, #12]
 8003b34:	4632      	mov	r2, r6
 8003b36:	463b      	mov	r3, r7
 8003b38:	4628      	mov	r0, r5
 8003b3a:	e8bd 41f0 	ldmia.w	sp!, {r4, r5, r6, r7, r8, lr}
 8003b3e:	f7fe bb63 	b.w	8002208 <_write_r>

08003b42 <__sseek>:
 8003b42:	b510      	push	{r4, lr}
 8003b44:	460c      	mov	r4, r1
 8003b46:	f9b1 100e 	ldrsh.w	r1, [r1, #14]
 8003b4a:	f000 f8cd 	bl	8003ce8 <_lseek_r>
 8003b4e:	1c43      	adds	r3, r0, #1
 8003b50:	89a3      	ldrh	r3, [r4, #12]
 8003b52:	bf15      	itete	ne
 8003b54:	6560      	strne	r0, [r4, #84]	@ 0x54
 8003b56:	f423 5380 	biceq.w	r3, r3, #4096	@ 0x1000
 8003b5a:	f443 5380 	orrne.w	r3, r3, #4096	@ 0x1000
 8003b5e:	81a3      	strheq	r3, [r4, #12]
 8003b60:	bf18      	it	ne
 8003b62:	81a3      	strhne	r3, [r4, #12]
 8003b64:	bd10      	pop	{r4, pc}

08003b66 <__sclose>:
 8003b66:	f9b1 100e 	ldrsh.w	r1, [r1, #14]
 8003b6a:	f000 b8ad 	b.w	8003cc8 <_close_r>

08003b6e <__swbuf_r>:
 8003b6e:	b5f8      	push	{r3, r4, r5, r6, r7, lr}
 8003b70:	460e      	mov	r6, r1
 8003b72:	4614      	mov	r4, r2
 8003b74:	4605      	mov	r5, r0
 8003b76:	b118      	cbz	r0, 8003b80 <__swbuf_r+0x12>
 8003b78:	6a03      	ldr	r3, [r0, #32]
 8003b7a:	b90b      	cbnz	r3, 8003b80 <__swbuf_r+0x12>
 8003b7c:	f7ff ff20 	bl	80039c0 <__sinit>
 8003b80:	69a3      	ldr	r3, [r4, #24]
 8003b82:	60a3      	str	r3, [r4, #8]
 8003b84:	89a3      	ldrh	r3, [r4, #12]
 8003b86:	071a      	lsls	r2, r3, #28
 8003b88:	d501      	bpl.n	8003b8e <__swbuf_r+0x20>
 8003b8a:	6923      	ldr	r3, [r4, #16]
 8003b8c:	b943      	cbnz	r3, 8003ba0 <__swbuf_r+0x32>
 8003b8e:	4621      	mov	r1, r4
 8003b90:	4628      	mov	r0, r5
 8003b92:	f000 f82b 	bl	8003bec <__swsetup_r>
 8003b96:	b118      	cbz	r0, 8003ba0 <__swbuf_r+0x32>
 8003b98:	f04f 37ff 	mov.w	r7, #4294967295
 8003b9c:	4638      	mov	r0, r7
 8003b9e:	bdf8      	pop	{r3, r4, r5, r6, r7, pc}
 8003ba0:	6823      	ldr	r3, [r4, #0]
 8003ba2:	6922      	ldr	r2, [r4, #16]
 8003ba4:	1a98      	subs	r0, r3, r2
 8003ba6:	6963      	ldr	r3, [r4, #20]
 8003ba8:	b2f6      	uxtb	r6, r6
 8003baa:	4283      	cmp	r3, r0
 8003bac:	4637      	mov	r7, r6
 8003bae:	dc05      	bgt.n	8003bbc <__swbuf_r+0x4e>
 8003bb0:	4621      	mov	r1, r4
 8003bb2:	4628      	mov	r0, r5
 8003bb4:	f000 fa6e 	bl	8004094 <_fflush_r>
 8003bb8:	2800      	cmp	r0, #0
 8003bba:	d1ed      	bne.n	8003b98 <__swbuf_r+0x2a>
 8003bbc:	68a3      	ldr	r3, [r4, #8]
 8003bbe:	3b01      	subs	r3, #1
 8003bc0:	60a3      	str	r3, [r4, #8]
 8003bc2:	6823      	ldr	r3, [r4, #0]
 8003bc4:	1c5a      	adds	r2, r3, #1
 8003bc6:	6022      	str	r2, [r4, #0]
 8003bc8:	701e      	strb	r6, [r3, #0]
 8003bca:	6962      	ldr	r2, [r4, #20]
 8003bcc:	1c43      	adds	r3, r0, #1
 8003bce:	429a      	cmp	r2, r3
 8003bd0:	d004      	beq.n	8003bdc <__swbuf_r+0x6e>
 8003bd2:	89a3      	ldrh	r3, [r4, #12]
 8003bd4:	07db      	lsls	r3, r3, #31
 8003bd6:	d5e1      	bpl.n	8003b9c <__swbuf_r+0x2e>
 8003bd8:	2e0a      	cmp	r6, #10
 8003bda:	d1df      	bne.n	8003b9c <__swbuf_r+0x2e>
 8003bdc:	4621      	mov	r1, r4
 8003bde:	4628      	mov	r0, r5
 8003be0:	f000 fa58 	bl	8004094 <_fflush_r>
 8003be4:	2800      	cmp	r0, #0
 8003be6:	d0d9      	beq.n	8003b9c <__swbuf_r+0x2e>
 8003be8:	e7d6      	b.n	8003b98 <__swbuf_r+0x2a>
	...

08003bec <__swsetup_r>:
 8003bec:	b538      	push	{r3, r4, r5, lr}
 8003bee:	4b29      	ldr	r3, [pc, #164]	@ (8003c94 <__swsetup_r+0xa8>)
 8003bf0:	4605      	mov	r5, r0
 8003bf2:	6818      	ldr	r0, [r3, #0]
 8003bf4:	460c      	mov	r4, r1
 8003bf6:	b118      	cbz	r0, 8003c00 <__swsetup_r+0x14>
 8003bf8:	6a03      	ldr	r3, [r0, #32]
 8003bfa:	b90b      	cbnz	r3, 8003c00 <__swsetup_r+0x14>
 8003bfc:	f7ff fee0 	bl	80039c0 <__sinit>
 8003c00:	f9b4 300c 	ldrsh.w	r3, [r4, #12]
 8003c04:	0719      	lsls	r1, r3, #28
 8003c06:	d422      	bmi.n	8003c4e <__swsetup_r+0x62>
 8003c08:	06da      	lsls	r2, r3, #27
 8003c0a:	d407      	bmi.n	8003c1c <__swsetup_r+0x30>
 8003c0c:	2209      	movs	r2, #9
 8003c0e:	602a      	str	r2, [r5, #0]
 8003c10:	f043 0340 	orr.w	r3, r3, #64	@ 0x40
 8003c14:	81a3      	strh	r3, [r4, #12]
 8003c16:	f04f 30ff 	mov.w	r0, #4294967295
 8003c1a:	e033      	b.n	8003c84 <__swsetup_r+0x98>
 8003c1c:	0758      	lsls	r0, r3, #29
 8003c1e:	d512      	bpl.n	8003c46 <__swsetup_r+0x5a>
 8003c20:	6b61      	ldr	r1, [r4, #52]	@ 0x34
 8003c22:	b141      	cbz	r1, 8003c36 <__swsetup_r+0x4a>
 8003c24:	f104 0344 	add.w	r3, r4, #68	@ 0x44
 8003c28:	4299      	cmp	r1, r3
 8003c2a:	d002      	beq.n	8003c32 <__swsetup_r+0x46>
 8003c2c:	4628      	mov	r0, r5
 8003c2e:	f000 f8b5 	bl	8003d9c <_free_r>
 8003c32:	2300      	movs	r3, #0
 8003c34:	6363      	str	r3, [r4, #52]	@ 0x34
 8003c36:	89a3      	ldrh	r3, [r4, #12]
 8003c38:	f023 0324 	bic.w	r3, r3, #36	@ 0x24
 8003c3c:	81a3      	strh	r3, [r4, #12]
 8003c3e:	2300      	movs	r3, #0
 8003c40:	6063      	str	r3, [r4, #4]
 8003c42:	6923      	ldr	r3, [r4, #16]
 8003c44:	6023      	str	r3, [r4, #0]
 8003c46:	89a3      	ldrh	r3, [r4, #12]
 8003c48:	f043 0308 	orr.w	r3, r3, #8
 8003c4c:	81a3      	strh	r3, [r4, #12]
 8003c4e:	6923      	ldr	r3, [r4, #16]
 8003c50:	b94b      	cbnz	r3, 8003c66 <__swsetup_r+0x7a>
 8003c52:	89a3      	ldrh	r3, [r4, #12]
 8003c54:	f403 7320 	and.w	r3, r3, #640	@ 0x280
 8003c58:	f5b3 7f00 	cmp.w	r3, #512	@ 0x200
 8003c5c:	d003      	beq.n	8003c66 <__swsetup_r+0x7a>
 8003c5e:	4621      	mov	r1, r4
 8003c60:	4628      	mov	r0, r5
 8003c62:	f000 fa65 	bl	8004130 <__smakebuf_r>
 8003c66:	f9b4 300c 	ldrsh.w	r3, [r4, #12]
 8003c6a:	f013 0201 	ands.w	r2, r3, #1
 8003c6e:	d00a      	beq.n	8003c86 <__swsetup_r+0x9a>
 8003c70:	2200      	movs	r2, #0
 8003c72:	60a2      	str	r2, [r4, #8]
 8003c74:	6962      	ldr	r2, [r4, #20]
 8003c76:	4252      	negs	r2, r2
 8003c78:	61a2      	str	r2, [r4, #24]
 8003c7a:	6922      	ldr	r2, [r4, #16]
 8003c7c:	b942      	cbnz	r2, 8003c90 <__swsetup_r+0xa4>
 8003c7e:	f013 0080 	ands.w	r0, r3, #128	@ 0x80
 8003c82:	d1c5      	bne.n	8003c10 <__swsetup_r+0x24>
 8003c84:	bd38      	pop	{r3, r4, r5, pc}
 8003c86:	0799      	lsls	r1, r3, #30
 8003c88:	bf58      	it	pl
 8003c8a:	6962      	ldrpl	r2, [r4, #20]
 8003c8c:	60a2      	str	r2, [r4, #8]
 8003c8e:	e7f4      	b.n	8003c7a <__swsetup_r+0x8e>
 8003c90:	2000      	movs	r0, #0
 8003c92:	e7f7      	b.n	8003c84 <__swsetup_r+0x98>
 8003c94:	20000014 	.word	0x20000014

08003c98 <memcmp>:
 8003c98:	b510      	push	{r4, lr}
 8003c9a:	3901      	subs	r1, #1
 8003c9c:	4402      	add	r2, r0
 8003c9e:	4290      	cmp	r0, r2
 8003ca0:	d101      	bne.n	8003ca6 <memcmp+0xe>
 8003ca2:	2000      	movs	r0, #0
 8003ca4:	e005      	b.n	8003cb2 <memcmp+0x1a>
 8003ca6:	7803      	ldrb	r3, [r0, #0]
 8003ca8:	f811 4f01 	ldrb.w	r4, [r1, #1]!
 8003cac:	42a3      	cmp	r3, r4
 8003cae:	d001      	beq.n	8003cb4 <memcmp+0x1c>
 8003cb0:	1b18      	subs	r0, r3, r4
 8003cb2:	bd10      	pop	{r4, pc}
 8003cb4:	3001      	adds	r0, #1
 8003cb6:	e7f2      	b.n	8003c9e <memcmp+0x6>

08003cb8 <memset>:
 8003cb8:	4402      	add	r2, r0
 8003cba:	4603      	mov	r3, r0
 8003cbc:	4293      	cmp	r3, r2
 8003cbe:	d100      	bne.n	8003cc2 <memset+0xa>
 8003cc0:	4770      	bx	lr
 8003cc2:	f803 1b01 	strb.w	r1, [r3], #1
 8003cc6:	e7f9      	b.n	8003cbc <memset+0x4>

08003cc8 <_close_r>:
 8003cc8:	b538      	push	{r3, r4, r5, lr}
 8003cca:	4d06      	ldr	r5, [pc, #24]	@ (8003ce4 <_close_r+0x1c>)
 8003ccc:	2300      	movs	r3, #0
 8003cce:	4604      	mov	r4, r0
 8003cd0:	4608      	mov	r0, r1
 8003cd2:	602b      	str	r3, [r5, #0]
 8003cd4:	f7fc fba1 	bl	800041a <_close>
 8003cd8:	1c43      	adds	r3, r0, #1
 8003cda:	d102      	bne.n	8003ce2 <_close_r+0x1a>
 8003cdc:	682b      	ldr	r3, [r5, #0]
 8003cde:	b103      	cbz	r3, 8003ce2 <_close_r+0x1a>
 8003ce0:	6023      	str	r3, [r4, #0]
 8003ce2:	bd38      	pop	{r3, r4, r5, pc}
 8003ce4:	20004990 	.word	0x20004990

08003ce8 <_lseek_r>:
 8003ce8:	b538      	push	{r3, r4, r5, lr}
 8003cea:	4d07      	ldr	r5, [pc, #28]	@ (8003d08 <_lseek_r+0x20>)
 8003cec:	4604      	mov	r4, r0
 8003cee:	4608      	mov	r0, r1
 8003cf0:	4611      	mov	r1, r2
 8003cf2:	2200      	movs	r2, #0
 8003cf4:	602a      	str	r2, [r5, #0]
 8003cf6:	461a      	mov	r2, r3
 8003cf8:	f7fc fbb6 	bl	8000468 <_lseek>
 8003cfc:	1c43      	adds	r3, r0, #1
 8003cfe:	d102      	bne.n	8003d06 <_lseek_r+0x1e>
 8003d00:	682b      	ldr	r3, [r5, #0]
 8003d02:	b103      	cbz	r3, 8003d06 <_lseek_r+0x1e>
 8003d04:	6023      	str	r3, [r4, #0]
 8003d06:	bd38      	pop	{r3, r4, r5, pc}
 8003d08:	20004990 	.word	0x20004990

08003d0c <_read_r>:
 8003d0c:	b538      	push	{r3, r4, r5, lr}
 8003d0e:	4d07      	ldr	r5, [pc, #28]	@ (8003d2c <_read_r+0x20>)
 8003d10:	4604      	mov	r4, r0
 8003d12:	4608      	mov	r0, r1
 8003d14:	4611      	mov	r1, r2
 8003d16:	2200      	movs	r2, #0
 8003d18:	602a      	str	r2, [r5, #0]
 8003d1a:	461a      	mov	r2, r3
 8003d1c:	f7fc fb60 	bl	80003e0 <_read>
 8003d20:	1c43      	adds	r3, r0, #1
 8003d22:	d102      	bne.n	8003d2a <_read_r+0x1e>
 8003d24:	682b      	ldr	r3, [r5, #0]
 8003d26:	b103      	cbz	r3, 8003d2a <_read_r+0x1e>
 8003d28:	6023      	str	r3, [r4, #0]
 8003d2a:	bd38      	pop	{r3, r4, r5, pc}
 8003d2c:	20004990 	.word	0x20004990

08003d30 <__libc_init_array>:
 8003d30:	b570      	push	{r4, r5, r6, lr}
 8003d32:	4d0d      	ldr	r5, [pc, #52]	@ (8003d68 <__libc_init_array+0x38>)
 8003d34:	4c0d      	ldr	r4, [pc, #52]	@ (8003d6c <__libc_init_array+0x3c>)
 8003d36:	1b64      	subs	r4, r4, r5
 8003d38:	10a4      	asrs	r4, r4, #2
 8003d3a:	2600      	movs	r6, #0
 8003d3c:	42a6      	cmp	r6, r4
 8003d3e:	d109      	bne.n	8003d54 <__libc_init_array+0x24>
 8003d40:	4d0b      	ldr	r5, [pc, #44]	@ (8003d70 <__libc_init_array+0x40>)
 8003d42:	4c0c      	ldr	r4, [pc, #48]	@ (8003d74 <__libc_init_array+0x44>)
 8003d44:	f000 fa70 	bl	8004228 <_init>
 8003d48:	1b64      	subs	r4, r4, r5
 8003d4a:	10a4      	asrs	r4, r4, #2
 8003d4c:	2600      	movs	r6, #0
 8003d4e:	42a6      	cmp	r6, r4
 8003d50:	d105      	bne.n	8003d5e <__libc_init_array+0x2e>
 8003d52:	bd70      	pop	{r4, r5, r6, pc}
 8003d54:	f855 3b04 	ldr.w	r3, [r5], #4
 8003d58:	4798      	blx	r3
 8003d5a:	3601      	adds	r6, #1
 8003d5c:	e7ee      	b.n	8003d3c <__libc_init_array+0xc>
 8003d5e:	f855 3b04 	ldr.w	r3, [r5], #4
 8003d62:	4798      	blx	r3
 8003d64:	3601      	adds	r6, #1
 8003d66:	e7f2      	b.n	8003d4e <__libc_init_array+0x1e>
 8003d68:	08004374 	.word	0x08004374
 8003d6c:	08004374 	.word	0x08004374
 8003d70:	08004374 	.word	0x08004374
 8003d74:	08004378 	.word	0x08004378

08003d78 <__retarget_lock_init_recursive>:
 8003d78:	4770      	bx	lr

08003d7a <__retarget_lock_acquire_recursive>:
 8003d7a:	4770      	bx	lr

08003d7c <__retarget_lock_release_recursive>:
 8003d7c:	4770      	bx	lr

08003d7e <memcpy>:
 8003d7e:	440a      	add	r2, r1
 8003d80:	4291      	cmp	r1, r2
 8003d82:	f100 33ff 	add.w	r3, r0, #4294967295
 8003d86:	d100      	bne.n	8003d8a <memcpy+0xc>
 8003d88:	4770      	bx	lr
 8003d8a:	b510      	push	{r4, lr}
 8003d8c:	f811 4b01 	ldrb.w	r4, [r1], #1
 8003d90:	f803 4f01 	strb.w	r4, [r3, #1]!
 8003d94:	4291      	cmp	r1, r2
 8003d96:	d1f9      	bne.n	8003d8c <memcpy+0xe>
 8003d98:	bd10      	pop	{r4, pc}
	...

08003d9c <_free_r>:
 8003d9c:	b538      	push	{r3, r4, r5, lr}
 8003d9e:	4605      	mov	r5, r0
 8003da0:	2900      	cmp	r1, #0
 8003da2:	d041      	beq.n	8003e28 <_free_r+0x8c>
 8003da4:	f851 3c04 	ldr.w	r3, [r1, #-4]
 8003da8:	1f0c      	subs	r4, r1, #4
 8003daa:	2b00      	cmp	r3, #0
 8003dac:	bfb8      	it	lt
 8003dae:	18e4      	addlt	r4, r4, r3
 8003db0:	f000 f8e0 	bl	8003f74 <__malloc_lock>
 8003db4:	4a1d      	ldr	r2, [pc, #116]	@ (8003e2c <_free_r+0x90>)
 8003db6:	6813      	ldr	r3, [r2, #0]
 8003db8:	b933      	cbnz	r3, 8003dc8 <_free_r+0x2c>
 8003dba:	6063      	str	r3, [r4, #4]
 8003dbc:	6014      	str	r4, [r2, #0]
 8003dbe:	4628      	mov	r0, r5
 8003dc0:	e8bd 4038 	ldmia.w	sp!, {r3, r4, r5, lr}
 8003dc4:	f000 b8dc 	b.w	8003f80 <__malloc_unlock>
 8003dc8:	42a3      	cmp	r3, r4
 8003dca:	d908      	bls.n	8003dde <_free_r+0x42>
 8003dcc:	6820      	ldr	r0, [r4, #0]
 8003dce:	1821      	adds	r1, r4, r0
 8003dd0:	428b      	cmp	r3, r1
 8003dd2:	bf01      	itttt	eq
 8003dd4:	6819      	ldreq	r1, [r3, #0]
 8003dd6:	685b      	ldreq	r3, [r3, #4]
 8003dd8:	1809      	addeq	r1, r1, r0
 8003dda:	6021      	streq	r1, [r4, #0]
 8003ddc:	e7ed      	b.n	8003dba <_free_r+0x1e>
 8003dde:	461a      	mov	r2, r3
 8003de0:	685b      	ldr	r3, [r3, #4]
 8003de2:	b10b      	cbz	r3, 8003de8 <_free_r+0x4c>
 8003de4:	42a3      	cmp	r3, r4
 8003de6:	d9fa      	bls.n	8003dde <_free_r+0x42>
 8003de8:	6811      	ldr	r1, [r2, #0]
 8003dea:	1850      	adds	r0, r2, r1
 8003dec:	42a0      	cmp	r0, r4
 8003dee:	d10b      	bne.n	8003e08 <_free_r+0x6c>
 8003df0:	6820      	ldr	r0, [r4, #0]
 8003df2:	4401      	add	r1, r0
 8003df4:	1850      	adds	r0, r2, r1
 8003df6:	4283      	cmp	r3, r0
 8003df8:	6011      	str	r1, [r2, #0]
 8003dfa:	d1e0      	bne.n	8003dbe <_free_r+0x22>
 8003dfc:	6818      	ldr	r0, [r3, #0]
 8003dfe:	685b      	ldr	r3, [r3, #4]
 8003e00:	6053      	str	r3, [r2, #4]
 8003e02:	4408      	add	r0, r1
 8003e04:	6010      	str	r0, [r2, #0]
 8003e06:	e7da      	b.n	8003dbe <_free_r+0x22>
 8003e08:	d902      	bls.n	8003e10 <_free_r+0x74>
 8003e0a:	230c      	movs	r3, #12
 8003e0c:	602b      	str	r3, [r5, #0]
 8003e0e:	e7d6      	b.n	8003dbe <_free_r+0x22>
 8003e10:	6820      	ldr	r0, [r4, #0]
 8003e12:	1821      	adds	r1, r4, r0
 8003e14:	428b      	cmp	r3, r1
 8003e16:	bf04      	itt	eq
 8003e18:	6819      	ldreq	r1, [r3, #0]
 8003e1a:	685b      	ldreq	r3, [r3, #4]
 8003e1c:	6063      	str	r3, [r4, #4]
 8003e1e:	bf04      	itt	eq
 8003e20:	1809      	addeq	r1, r1, r0
 8003e22:	6021      	streq	r1, [r4, #0]
 8003e24:	6054      	str	r4, [r2, #4]
 8003e26:	e7ca      	b.n	8003dbe <_free_r+0x22>
 8003e28:	bd38      	pop	{r3, r4, r5, pc}
 8003e2a:	bf00      	nop
 8003e2c:	2000499c 	.word	0x2000499c

08003e30 <sbrk_aligned>:
 8003e30:	b570      	push	{r4, r5, r6, lr}
 8003e32:	4e0f      	ldr	r6, [pc, #60]	@ (8003e70 <sbrk_aligned+0x40>)
 8003e34:	460c      	mov	r4, r1
 8003e36:	6831      	ldr	r1, [r6, #0]
 8003e38:	4605      	mov	r5, r0
 8003e3a:	b911      	cbnz	r1, 8003e42 <sbrk_aligned+0x12>
 8003e3c:	f000 f9d6 	bl	80041ec <_sbrk_r>
 8003e40:	6030      	str	r0, [r6, #0]
 8003e42:	4621      	mov	r1, r4
 8003e44:	4628      	mov	r0, r5
 8003e46:	f000 f9d1 	bl	80041ec <_sbrk_r>
 8003e4a:	1c43      	adds	r3, r0, #1
 8003e4c:	d103      	bne.n	8003e56 <sbrk_aligned+0x26>
 8003e4e:	f04f 34ff 	mov.w	r4, #4294967295
 8003e52:	4620      	mov	r0, r4
 8003e54:	bd70      	pop	{r4, r5, r6, pc}
 8003e56:	1cc4      	adds	r4, r0, #3
 8003e58:	f024 0403 	bic.w	r4, r4, #3
 8003e5c:	42a0      	cmp	r0, r4
 8003e5e:	d0f8      	beq.n	8003e52 <sbrk_aligned+0x22>
 8003e60:	1a21      	subs	r1, r4, r0
 8003e62:	4628      	mov	r0, r5
 8003e64:	f000 f9c2 	bl	80041ec <_sbrk_r>
 8003e68:	3001      	adds	r0, #1
 8003e6a:	d1f2      	bne.n	8003e52 <sbrk_aligned+0x22>
 8003e6c:	e7ef      	b.n	8003e4e <sbrk_aligned+0x1e>
 8003e6e:	bf00      	nop
 8003e70:	20004998 	.word	0x20004998

08003e74 <_malloc_r>:
 8003e74:	e92d 43f8 	stmdb	sp!, {r3, r4, r5, r6, r7, r8, r9, lr}
 8003e78:	1ccd      	adds	r5, r1, #3
 8003e7a:	f025 0503 	bic.w	r5, r5, #3
 8003e7e:	3508      	adds	r5, #8
 8003e80:	2d0c      	cmp	r5, #12
 8003e82:	bf38      	it	cc
 8003e84:	250c      	movcc	r5, #12
 8003e86:	2d00      	cmp	r5, #0
 8003e88:	4606      	mov	r6, r0
 8003e8a:	db01      	blt.n	8003e90 <_malloc_r+0x1c>
 8003e8c:	42a9      	cmp	r1, r5
 8003e8e:	d904      	bls.n	8003e9a <_malloc_r+0x26>
 8003e90:	230c      	movs	r3, #12
 8003e92:	6033      	str	r3, [r6, #0]
 8003e94:	2000      	movs	r0, #0
 8003e96:	e8bd 83f8 	ldmia.w	sp!, {r3, r4, r5, r6, r7, r8, r9, pc}
 8003e9a:	f8df 80d4 	ldr.w	r8, [pc, #212]	@ 8003f70 <_malloc_r+0xfc>
 8003e9e:	f000 f869 	bl	8003f74 <__malloc_lock>
 8003ea2:	f8d8 3000 	ldr.w	r3, [r8]
 8003ea6:	461c      	mov	r4, r3
 8003ea8:	bb44      	cbnz	r4, 8003efc <_malloc_r+0x88>
 8003eaa:	4629      	mov	r1, r5
 8003eac:	4630      	mov	r0, r6
 8003eae:	f7ff ffbf 	bl	8003e30 <sbrk_aligned>
 8003eb2:	1c43      	adds	r3, r0, #1
 8003eb4:	4604      	mov	r4, r0
 8003eb6:	d158      	bne.n	8003f6a <_malloc_r+0xf6>
 8003eb8:	f8d8 4000 	ldr.w	r4, [r8]
 8003ebc:	4627      	mov	r7, r4
 8003ebe:	2f00      	cmp	r7, #0
 8003ec0:	d143      	bne.n	8003f4a <_malloc_r+0xd6>
 8003ec2:	2c00      	cmp	r4, #0
 8003ec4:	d04b      	beq.n	8003f5e <_malloc_r+0xea>
 8003ec6:	6823      	ldr	r3, [r4, #0]
 8003ec8:	4639      	mov	r1, r7
 8003eca:	4630      	mov	r0, r6
 8003ecc:	eb04 0903 	add.w	r9, r4, r3
 8003ed0:	f000 f98c 	bl	80041ec <_sbrk_r>
 8003ed4:	4581      	cmp	r9, r0
 8003ed6:	d142      	bne.n	8003f5e <_malloc_r+0xea>
 8003ed8:	6821      	ldr	r1, [r4, #0]
 8003eda:	1a6d      	subs	r5, r5, r1
 8003edc:	4629      	mov	r1, r5
 8003ede:	4630      	mov	r0, r6
 8003ee0:	f7ff ffa6 	bl	8003e30 <sbrk_aligned>
 8003ee4:	3001      	adds	r0, #1
 8003ee6:	d03a      	beq.n	8003f5e <_malloc_r+0xea>
 8003ee8:	6823      	ldr	r3, [r4, #0]
 8003eea:	442b      	add	r3, r5
 8003eec:	6023      	str	r3, [r4, #0]
 8003eee:	f8d8 3000 	ldr.w	r3, [r8]
 8003ef2:	685a      	ldr	r2, [r3, #4]
 8003ef4:	bb62      	cbnz	r2, 8003f50 <_malloc_r+0xdc>
 8003ef6:	f8c8 7000 	str.w	r7, [r8]
 8003efa:	e00f      	b.n	8003f1c <_malloc_r+0xa8>
 8003efc:	6822      	ldr	r2, [r4, #0]
 8003efe:	1b52      	subs	r2, r2, r5
 8003f00:	d420      	bmi.n	8003f44 <_malloc_r+0xd0>
 8003f02:	2a0b      	cmp	r2, #11
 8003f04:	d917      	bls.n	8003f36 <_malloc_r+0xc2>
 8003f06:	1961      	adds	r1, r4, r5
 8003f08:	42a3      	cmp	r3, r4
 8003f0a:	6025      	str	r5, [r4, #0]
 8003f0c:	bf18      	it	ne
 8003f0e:	6059      	strne	r1, [r3, #4]
 8003f10:	6863      	ldr	r3, [r4, #4]
 8003f12:	bf08      	it	eq
 8003f14:	f8c8 1000 	streq.w	r1, [r8]
 8003f18:	5162      	str	r2, [r4, r5]
 8003f1a:	604b      	str	r3, [r1, #4]
 8003f1c:	4630      	mov	r0, r6
 8003f1e:	f000 f82f 	bl	8003f80 <__malloc_unlock>
 8003f22:	f104 000b 	add.w	r0, r4, #11
 8003f26:	1d23      	adds	r3, r4, #4
 8003f28:	f020 0007 	bic.w	r0, r0, #7
 8003f2c:	1ac2      	subs	r2, r0, r3
 8003f2e:	bf1c      	itt	ne
 8003f30:	1a1b      	subne	r3, r3, r0
 8003f32:	50a3      	strne	r3, [r4, r2]
 8003f34:	e7af      	b.n	8003e96 <_malloc_r+0x22>
 8003f36:	6862      	ldr	r2, [r4, #4]
 8003f38:	42a3      	cmp	r3, r4
 8003f3a:	bf0c      	ite	eq
 8003f3c:	f8c8 2000 	streq.w	r2, [r8]
 8003f40:	605a      	strne	r2, [r3, #4]
 8003f42:	e7eb      	b.n	8003f1c <_malloc_r+0xa8>
 8003f44:	4623      	mov	r3, r4
 8003f46:	6864      	ldr	r4, [r4, #4]
 8003f48:	e7ae      	b.n	8003ea8 <_malloc_r+0x34>
 8003f4a:	463c      	mov	r4, r7
 8003f4c:	687f      	ldr	r7, [r7, #4]
 8003f4e:	e7b6      	b.n	8003ebe <_malloc_r+0x4a>
 8003f50:	461a      	mov	r2, r3
 8003f52:	685b      	ldr	r3, [r3, #4]
 8003f54:	42a3      	cmp	r3, r4
 8003f56:	d1fb      	bne.n	8003f50 <_malloc_r+0xdc>
 8003f58:	2300      	movs	r3, #0
 8003f5a:	6053      	str	r3, [r2, #4]
 8003f5c:	e7de      	b.n	8003f1c <_malloc_r+0xa8>
 8003f5e:	230c      	movs	r3, #12
 8003f60:	6033      	str	r3, [r6, #0]
 8003f62:	4630      	mov	r0, r6
 8003f64:	f000 f80c 	bl	8003f80 <__malloc_unlock>
 8003f68:	e794      	b.n	8003e94 <_malloc_r+0x20>
 8003f6a:	6005      	str	r5, [r0, #0]
 8003f6c:	e7d6      	b.n	8003f1c <_malloc_r+0xa8>
 8003f6e:	bf00      	nop
 8003f70:	2000499c 	.word	0x2000499c

08003f74 <__malloc_lock>:
 8003f74:	4801      	ldr	r0, [pc, #4]	@ (8003f7c <__malloc_lock+0x8>)
 8003f76:	f7ff bf00 	b.w	8003d7a <__retarget_lock_acquire_recursive>
 8003f7a:	bf00      	nop
 8003f7c:	20004994 	.word	0x20004994

08003f80 <__malloc_unlock>:
 8003f80:	4801      	ldr	r0, [pc, #4]	@ (8003f88 <__malloc_unlock+0x8>)
 8003f82:	f7ff befb 	b.w	8003d7c <__retarget_lock_release_recursive>
 8003f86:	bf00      	nop
 8003f88:	20004994 	.word	0x20004994

08003f8c <__sflush_r>:
 8003f8c:	f9b1 200c 	ldrsh.w	r2, [r1, #12]
 8003f90:	e92d 41f0 	stmdb	sp!, {r4, r5, r6, r7, r8, lr}
 8003f94:	0716      	lsls	r6, r2, #28
 8003f96:	4605      	mov	r5, r0
 8003f98:	460c      	mov	r4, r1
 8003f9a:	d454      	bmi.n	8004046 <__sflush_r+0xba>
 8003f9c:	684b      	ldr	r3, [r1, #4]
 8003f9e:	2b00      	cmp	r3, #0
 8003fa0:	dc02      	bgt.n	8003fa8 <__sflush_r+0x1c>
 8003fa2:	6c0b      	ldr	r3, [r1, #64]	@ 0x40
 8003fa4:	2b00      	cmp	r3, #0
 8003fa6:	dd48      	ble.n	800403a <__sflush_r+0xae>
 8003fa8:	6ae6      	ldr	r6, [r4, #44]	@ 0x2c
 8003faa:	2e00      	cmp	r6, #0
 8003fac:	d045      	beq.n	800403a <__sflush_r+0xae>
 8003fae:	2300      	movs	r3, #0
 8003fb0:	f412 5280 	ands.w	r2, r2, #4096	@ 0x1000
 8003fb4:	682f      	ldr	r7, [r5, #0]
 8003fb6:	6a21      	ldr	r1, [r4, #32]
 8003fb8:	602b      	str	r3, [r5, #0]
 8003fba:	d030      	beq.n	800401e <__sflush_r+0x92>
 8003fbc:	6d62      	ldr	r2, [r4, #84]	@ 0x54
 8003fbe:	89a3      	ldrh	r3, [r4, #12]
 8003fc0:	0759      	lsls	r1, r3, #29
 8003fc2:	d505      	bpl.n	8003fd0 <__sflush_r+0x44>
 8003fc4:	6863      	ldr	r3, [r4, #4]
 8003fc6:	1ad2      	subs	r2, r2, r3
 8003fc8:	6b63      	ldr	r3, [r4, #52]	@ 0x34
 8003fca:	b10b      	cbz	r3, 8003fd0 <__sflush_r+0x44>
 8003fcc:	6c23      	ldr	r3, [r4, #64]	@ 0x40
 8003fce:	1ad2      	subs	r2, r2, r3
 8003fd0:	2300      	movs	r3, #0
 8003fd2:	6ae6      	ldr	r6, [r4, #44]	@ 0x2c
 8003fd4:	6a21      	ldr	r1, [r4, #32]
 8003fd6:	4628      	mov	r0, r5
 8003fd8:	47b0      	blx	r6
 8003fda:	1c43      	adds	r3, r0, #1
 8003fdc:	89a3      	ldrh	r3, [r4, #12]
 8003fde:	d106      	bne.n	8003fee <__sflush_r+0x62>
 8003fe0:	6829      	ldr	r1, [r5, #0]
 8003fe2:	291d      	cmp	r1, #29
 8003fe4:	d82b      	bhi.n	800403e <__sflush_r+0xb2>
 8003fe6:	4a2a      	ldr	r2, [pc, #168]	@ (8004090 <__sflush_r+0x104>)
 8003fe8:	40ca      	lsrs	r2, r1
 8003fea:	07d6      	lsls	r6, r2, #31
 8003fec:	d527      	bpl.n	800403e <__sflush_r+0xb2>
 8003fee:	2200      	movs	r2, #0
 8003ff0:	6062      	str	r2, [r4, #4]
 8003ff2:	04d9      	lsls	r1, r3, #19
 8003ff4:	6922      	ldr	r2, [r4, #16]
 8003ff6:	6022      	str	r2, [r4, #0]
 8003ff8:	d504      	bpl.n	8004004 <__sflush_r+0x78>
 8003ffa:	1c42      	adds	r2, r0, #1
 8003ffc:	d101      	bne.n	8004002 <__sflush_r+0x76>
 8003ffe:	682b      	ldr	r3, [r5, #0]
 8004000:	b903      	cbnz	r3, 8004004 <__sflush_r+0x78>
 8004002:	6560      	str	r0, [r4, #84]	@ 0x54
 8004004:	6b61      	ldr	r1, [r4, #52]	@ 0x34
 8004006:	602f      	str	r7, [r5, #0]
 8004008:	b1b9      	cbz	r1, 800403a <__sflush_r+0xae>
 800400a:	f104 0344 	add.w	r3, r4, #68	@ 0x44
 800400e:	4299      	cmp	r1, r3
 8004010:	d002      	beq.n	8004018 <__sflush_r+0x8c>
 8004012:	4628      	mov	r0, r5
 8004014:	f7ff fec2 	bl	8003d9c <_free_r>
 8004018:	2300      	movs	r3, #0
 800401a:	6363      	str	r3, [r4, #52]	@ 0x34
 800401c:	e00d      	b.n	800403a <__sflush_r+0xae>
 800401e:	2301      	movs	r3, #1
 8004020:	4628      	mov	r0, r5
 8004022:	47b0      	blx	r6
 8004024:	4602      	mov	r2, r0
 8004026:	1c50      	adds	r0, r2, #1
 8004028:	d1c9      	bne.n	8003fbe <__sflush_r+0x32>
 800402a:	682b      	ldr	r3, [r5, #0]
 800402c:	2b00      	cmp	r3, #0
 800402e:	d0c6      	beq.n	8003fbe <__sflush_r+0x32>
 8004030:	2b1d      	cmp	r3, #29
 8004032:	d001      	beq.n	8004038 <__sflush_r+0xac>
 8004034:	2b16      	cmp	r3, #22
 8004036:	d11e      	bne.n	8004076 <__sflush_r+0xea>
 8004038:	602f      	str	r7, [r5, #0]
 800403a:	2000      	movs	r0, #0
 800403c:	e022      	b.n	8004084 <__sflush_r+0xf8>
 800403e:	f043 0340 	orr.w	r3, r3, #64	@ 0x40
 8004042:	b21b      	sxth	r3, r3
 8004044:	e01b      	b.n	800407e <__sflush_r+0xf2>
 8004046:	690f      	ldr	r7, [r1, #16]
 8004048:	2f00      	cmp	r7, #0
 800404a:	d0f6      	beq.n	800403a <__sflush_r+0xae>
 800404c:	0793      	lsls	r3, r2, #30
 800404e:	680e      	ldr	r6, [r1, #0]
 8004050:	bf08      	it	eq
 8004052:	694b      	ldreq	r3, [r1, #20]
 8004054:	600f      	str	r7, [r1, #0]
 8004056:	bf18      	it	ne
 8004058:	2300      	movne	r3, #0
 800405a:	eba6 0807 	sub.w	r8, r6, r7
 800405e:	608b      	str	r3, [r1, #8]
 8004060:	f1b8 0f00 	cmp.w	r8, #0
 8004064:	dde9      	ble.n	800403a <__sflush_r+0xae>
 8004066:	6a21      	ldr	r1, [r4, #32]
 8004068:	6aa6      	ldr	r6, [r4, #40]	@ 0x28
 800406a:	4643      	mov	r3, r8
 800406c:	463a      	mov	r2, r7
 800406e:	4628      	mov	r0, r5
 8004070:	47b0      	blx	r6
 8004072:	2800      	cmp	r0, #0
 8004074:	dc08      	bgt.n	8004088 <__sflush_r+0xfc>
 8004076:	f9b4 300c 	ldrsh.w	r3, [r4, #12]
 800407a:	f043 0340 	orr.w	r3, r3, #64	@ 0x40
 800407e:	81a3      	strh	r3, [r4, #12]
 8004080:	f04f 30ff 	mov.w	r0, #4294967295
 8004084:	e8bd 81f0 	ldmia.w	sp!, {r4, r5, r6, r7, r8, pc}
 8004088:	4407      	add	r7, r0
 800408a:	eba8 0800 	sub.w	r8, r8, r0
 800408e:	e7e7      	b.n	8004060 <__sflush_r+0xd4>
 8004090:	20400001 	.word	0x20400001

08004094 <_fflush_r>:
 8004094:	b538      	push	{r3, r4, r5, lr}
 8004096:	690b      	ldr	r3, [r1, #16]
 8004098:	4605      	mov	r5, r0
 800409a:	460c      	mov	r4, r1
 800409c:	b913      	cbnz	r3, 80040a4 <_fflush_r+0x10>
 800409e:	2500      	movs	r5, #0
 80040a0:	4628      	mov	r0, r5
 80040a2:	bd38      	pop	{r3, r4, r5, pc}
 80040a4:	b118      	cbz	r0, 80040ae <_fflush_r+0x1a>
 80040a6:	6a03      	ldr	r3, [r0, #32]
 80040a8:	b90b      	cbnz	r3, 80040ae <_fflush_r+0x1a>
 80040aa:	f7ff fc89 	bl	80039c0 <__sinit>
 80040ae:	f9b4 300c 	ldrsh.w	r3, [r4, #12]
 80040b2:	2b00      	cmp	r3, #0
 80040b4:	d0f3      	beq.n	800409e <_fflush_r+0xa>
 80040b6:	6e62      	ldr	r2, [r4, #100]	@ 0x64
 80040b8:	07d0      	lsls	r0, r2, #31
 80040ba:	d404      	bmi.n	80040c6 <_fflush_r+0x32>
 80040bc:	0599      	lsls	r1, r3, #22
 80040be:	d402      	bmi.n	80040c6 <_fflush_r+0x32>
 80040c0:	6da0      	ldr	r0, [r4, #88]	@ 0x58
 80040c2:	f7ff fe5a 	bl	8003d7a <__retarget_lock_acquire_recursive>
 80040c6:	4628      	mov	r0, r5
 80040c8:	4621      	mov	r1, r4
 80040ca:	f7ff ff5f 	bl	8003f8c <__sflush_r>
 80040ce:	6e63      	ldr	r3, [r4, #100]	@ 0x64
 80040d0:	07da      	lsls	r2, r3, #31
 80040d2:	4605      	mov	r5, r0
 80040d4:	d4e4      	bmi.n	80040a0 <_fflush_r+0xc>
 80040d6:	89a3      	ldrh	r3, [r4, #12]
 80040d8:	059b      	lsls	r3, r3, #22
 80040da:	d4e1      	bmi.n	80040a0 <_fflush_r+0xc>
 80040dc:	6da0      	ldr	r0, [r4, #88]	@ 0x58
 80040de:	f7ff fe4d 	bl	8003d7c <__retarget_lock_release_recursive>
 80040e2:	e7dd      	b.n	80040a0 <_fflush_r+0xc>

080040e4 <__swhatbuf_r>:
 80040e4:	b570      	push	{r4, r5, r6, lr}
 80040e6:	460c      	mov	r4, r1
 80040e8:	f9b1 100e 	ldrsh.w	r1, [r1, #14]
 80040ec:	2900      	cmp	r1, #0
 80040ee:	b096      	sub	sp, #88	@ 0x58
 80040f0:	4615      	mov	r5, r2
 80040f2:	461e      	mov	r6, r3
 80040f4:	da0d      	bge.n	8004112 <__swhatbuf_r+0x2e>
 80040f6:	89a3      	ldrh	r3, [r4, #12]
 80040f8:	f013 0f80 	tst.w	r3, #128	@ 0x80
 80040fc:	f04f 0100 	mov.w	r1, #0
 8004100:	bf14      	ite	ne
 8004102:	2340      	movne	r3, #64	@ 0x40
 8004104:	f44f 6380 	moveq.w	r3, #1024	@ 0x400
 8004108:	2000      	movs	r0, #0
 800410a:	6031      	str	r1, [r6, #0]
 800410c:	602b      	str	r3, [r5, #0]
 800410e:	b016      	add	sp, #88	@ 0x58
 8004110:	bd70      	pop	{r4, r5, r6, pc}
 8004112:	466a      	mov	r2, sp
 8004114:	f000 f848 	bl	80041a8 <_fstat_r>
 8004118:	2800      	cmp	r0, #0
 800411a:	dbec      	blt.n	80040f6 <__swhatbuf_r+0x12>
 800411c:	9901      	ldr	r1, [sp, #4]
 800411e:	f401 4170 	and.w	r1, r1, #61440	@ 0xf000
 8004122:	f5a1 5300 	sub.w	r3, r1, #8192	@ 0x2000
 8004126:	4259      	negs	r1, r3
 8004128:	4159      	adcs	r1, r3
 800412a:	f44f 6380 	mov.w	r3, #1024	@ 0x400
 800412e:	e7eb      	b.n	8004108 <__swhatbuf_r+0x24>

08004130 <__smakebuf_r>:
 8004130:	898b      	ldrh	r3, [r1, #12]
 8004132:	b5f7      	push	{r0, r1, r2, r4, r5, r6, r7, lr}
 8004134:	079d      	lsls	r5, r3, #30
 8004136:	4606      	mov	r6, r0
 8004138:	460c      	mov	r4, r1
 800413a:	d507      	bpl.n	800414c <__smakebuf_r+0x1c>
 800413c:	f104 0347 	add.w	r3, r4, #71	@ 0x47
 8004140:	6023      	str	r3, [r4, #0]
 8004142:	6123      	str	r3, [r4, #16]
 8004144:	2301      	movs	r3, #1
 8004146:	6163      	str	r3, [r4, #20]
 8004148:	b003      	add	sp, #12
 800414a:	bdf0      	pop	{r4, r5, r6, r7, pc}
 800414c:	ab01      	add	r3, sp, #4
 800414e:	466a      	mov	r2, sp
 8004150:	f7ff ffc8 	bl	80040e4 <__swhatbuf_r>
 8004154:	9f00      	ldr	r7, [sp, #0]
 8004156:	4605      	mov	r5, r0
 8004158:	4639      	mov	r1, r7
 800415a:	4630      	mov	r0, r6
 800415c:	f7ff fe8a 	bl	8003e74 <_malloc_r>
 8004160:	b948      	cbnz	r0, 8004176 <__smakebuf_r+0x46>
 8004162:	f9b4 300c 	ldrsh.w	r3, [r4, #12]
 8004166:	059a      	lsls	r2, r3, #22
 8004168:	d4ee      	bmi.n	8004148 <__smakebuf_r+0x18>
 800416a:	f023 0303 	bic.w	r3, r3, #3
 800416e:	f043 0302 	orr.w	r3, r3, #2
 8004172:	81a3      	strh	r3, [r4, #12]
 8004174:	e7e2      	b.n	800413c <__smakebuf_r+0xc>
 8004176:	89a3      	ldrh	r3, [r4, #12]
 8004178:	6020      	str	r0, [r4, #0]
 800417a:	f043 0380 	orr.w	r3, r3, #128	@ 0x80
 800417e:	81a3      	strh	r3, [r4, #12]
 8004180:	9b01      	ldr	r3, [sp, #4]
 8004182:	e9c4 0704 	strd	r0, r7, [r4, #16]
 8004186:	b15b      	cbz	r3, 80041a0 <__smakebuf_r+0x70>
 8004188:	f9b4 100e 	ldrsh.w	r1, [r4, #14]
 800418c:	4630      	mov	r0, r6
 800418e:	f000 f81d 	bl	80041cc <_isatty_r>
 8004192:	b128      	cbz	r0, 80041a0 <__smakebuf_r+0x70>
 8004194:	89a3      	ldrh	r3, [r4, #12]
 8004196:	f023 0303 	bic.w	r3, r3, #3
 800419a:	f043 0301 	orr.w	r3, r3, #1
 800419e:	81a3      	strh	r3, [r4, #12]
 80041a0:	89a3      	ldrh	r3, [r4, #12]
 80041a2:	431d      	orrs	r5, r3
 80041a4:	81a5      	strh	r5, [r4, #12]
 80041a6:	e7cf      	b.n	8004148 <__smakebuf_r+0x18>

080041a8 <_fstat_r>:
 80041a8:	b538      	push	{r3, r4, r5, lr}
 80041aa:	4d07      	ldr	r5, [pc, #28]	@ (80041c8 <_fstat_r+0x20>)
 80041ac:	2300      	movs	r3, #0
 80041ae:	4604      	mov	r4, r0
 80041b0:	4608      	mov	r0, r1
 80041b2:	4611      	mov	r1, r2
 80041b4:	602b      	str	r3, [r5, #0]
 80041b6:	f7fc f93c 	bl	8000432 <_fstat>
 80041ba:	1c43      	adds	r3, r0, #1
 80041bc:	d102      	bne.n	80041c4 <_fstat_r+0x1c>
 80041be:	682b      	ldr	r3, [r5, #0]
 80041c0:	b103      	cbz	r3, 80041c4 <_fstat_r+0x1c>
 80041c2:	6023      	str	r3, [r4, #0]
 80041c4:	bd38      	pop	{r3, r4, r5, pc}
 80041c6:	bf00      	nop
 80041c8:	20004990 	.word	0x20004990

080041cc <_isatty_r>:
 80041cc:	b538      	push	{r3, r4, r5, lr}
 80041ce:	4d06      	ldr	r5, [pc, #24]	@ (80041e8 <_isatty_r+0x1c>)
 80041d0:	2300      	movs	r3, #0
 80041d2:	4604      	mov	r4, r0
 80041d4:	4608      	mov	r0, r1
 80041d6:	602b      	str	r3, [r5, #0]
 80041d8:	f7fc f93b 	bl	8000452 <_isatty>
 80041dc:	1c43      	adds	r3, r0, #1
 80041de:	d102      	bne.n	80041e6 <_isatty_r+0x1a>
 80041e0:	682b      	ldr	r3, [r5, #0]
 80041e2:	b103      	cbz	r3, 80041e6 <_isatty_r+0x1a>
 80041e4:	6023      	str	r3, [r4, #0]
 80041e6:	bd38      	pop	{r3, r4, r5, pc}
 80041e8:	20004990 	.word	0x20004990

080041ec <_sbrk_r>:
 80041ec:	b538      	push	{r3, r4, r5, lr}
 80041ee:	4d06      	ldr	r5, [pc, #24]	@ (8004208 <_sbrk_r+0x1c>)
 80041f0:	2300      	movs	r3, #0
 80041f2:	4604      	mov	r4, r0
 80041f4:	4608      	mov	r0, r1
 80041f6:	602b      	str	r3, [r5, #0]
 80041f8:	f000 f808 	bl	800420c <_sbrk>
 80041fc:	1c43      	adds	r3, r0, #1
 80041fe:	d102      	bne.n	8004206 <_sbrk_r+0x1a>
 8004200:	682b      	ldr	r3, [r5, #0]
 8004202:	b103      	cbz	r3, 8004206 <_sbrk_r+0x1a>
 8004204:	6023      	str	r3, [r4, #0]
 8004206:	bd38      	pop	{r3, r4, r5, pc}
 8004208:	20004990 	.word	0x20004990

0800420c <_sbrk>:
 800420c:	4a04      	ldr	r2, [pc, #16]	@ (8004220 <_sbrk+0x14>)
 800420e:	6811      	ldr	r1, [r2, #0]
 8004210:	4603      	mov	r3, r0
 8004212:	b909      	cbnz	r1, 8004218 <_sbrk+0xc>
 8004214:	4903      	ldr	r1, [pc, #12]	@ (8004224 <_sbrk+0x18>)
 8004216:	6011      	str	r1, [r2, #0]
 8004218:	6810      	ldr	r0, [r2, #0]
 800421a:	4403      	add	r3, r0
 800421c:	6013      	str	r3, [r2, #0]
 800421e:	4770      	bx	lr
 8004220:	200049a0 	.word	0x200049a0
 8004224:	200049a8 	.word	0x200049a8

08004228 <_init>:
 8004228:	b5f8      	push	{r3, r4, r5, r6, r7, lr}
 800422a:	bf00      	nop
 800422c:	bcf8      	pop	{r3, r4, r5, r6, r7}
 800422e:	bc08      	pop	{r3}
 8004230:	469e      	mov	lr, r3
 8004232:	4770      	bx	lr

08004234 <_fini>:
 8004234:	b5f8      	push	{r3, r4, r5, r6, r7, lr}
 8004236:	bf00      	nop
 8004238:	bcf8      	pop	{r3, r4, r5, r6, r7}
 800423a:	bc08      	pop	{r3}
 800423c:	469e      	mov	lr, r3
 800423e:	4770      	bx	lr
